(dp0
S'METTS MARK'
p1
(dp2
S'to_messages'
p3
I807
sS'deferral_payments'
p4
S'NaN'
p5
sS'expenses'
p6
I94299
sS'fraction_to_poi_email'
p7
cnumpy.core.multiarray
scalar
p8
(cnumpy
dtype
p9
(S'f8'
p10
I0
I1
tp11
Rp12
(I3
S'<'
p13
NNNI-1
I-1
I0
tp14
bS'\x96{\x1aa\xb9\xa7\xa1?'
p15
tp16
Rp17
sS'poi'
p18
I00
sS'deferred_income'
p19
g5
sS'email_address'
p20
S'mark.metts@enron.com'
p21
sS'long_term_incentive'
p22
g5
sS'restricted_stock_deferred'
p23
g5
sS'shared_receipt_with_poi'
p24
I702
sS'loan_advances'
p25
g5
sS'from_messages'
p26
I29
sS'other'
p27
I1740
sS'director_fees'
p28
g5
sS'fraction_from_poi_email'
p29
g8
(g12
S'\xf2\xd3f5X\xbb\xcb?'
p30
tp31
Rp32
sS'bonus'
p33
I600000
sS'total_stock_value'
p34
I585062
sS'from_poi_to_this_person'
p35
I38
sS'from_this_person_to_poi'
p36
I1
sS'restricted_stock'
p37
I585062
sS'salary'
p38
I365788
sS'total_payments'
p39
I1061827
sS'exercised_stock_options'
p40
g5
ssS'BAXTER JOHN C'
p41
(dp42
g3
g5
sg4
I1295738
sg6
I11200
sg7
g8
(g12
S'\x00\x00\x00\x00\x00\x00\x00\x00'
p43
tp44
Rp45
sg18
I00
sg19
I-1386055
sg20
g5
sg22
I1586055
sg23
g5
sg24
g5
sg25
g5
sg26
g5
sg27
I2660303
sg28
g5
sg29
g8
(g12
S'\x00\x00\x00\x00\x00\x00\x00\x00'
p46
tp47
Rp48
sg33
I1200000
sg34
I10623258
sg35
g5
sg36
g5
sg37
I3942714
sg38
I267102
sg39
I5634343
sg40
I6680544
ssS'ELLIOTT STEVEN'
p49
(dp50
g3
g5
sg4
g5
sg6
I78552
sg7
g8
(g12
S'\x00\x00\x00\x00\x00\x00\x00\x00'
p51
tp52
Rp53
sg18
I00
sg19
I-400729
sg20
S'steven.elliott@enron.com'
p54
sg22
g5
sg23
g5
sg24
g5
sg25
g5
sg26
g5
sg27
I12961
sg28
g5
sg29
g8
(g12
S'\x00\x00\x00\x00\x00\x00\x00\x00'
p55
tp56
Rp57
sg33
I350000
sg34
I6678735
sg35
g5
sg36
g5
sg37
I1788391
sg38
I170941
sg39
I211725
sg40
I4890344
ssS'CORDES WILLIAM R'
p58
(dp59
g3
I764
sg4
g5
sg6
g5
sg7
g8
(g12
S'\x00\x00\x00\x00\x00\x00\x00\x00'
p60
tp61
Rp62
sg18
I00
sg19
g5
sg20
S'bill.cordes@enron.com'
p63
sg22
g5
sg23
g5
sg24
I58
sg25
g5
sg26
I12
sg27
g5
sg28
g5
sg29
g8
(g12
S'\x94\xfd\x04A\x98\xd5\xae?'
p64
tp65
Rp66
sg33
g5
sg34
I1038185
sg35
I10
sg36
I0
sg37
I386335
sg38
g5
sg39
g5
sg40
I651850
ssS'HANNON KEVIN P'
p67
(dp68
g3
I1045
sg4
g5
sg6
I34039
sg7
g8
(g12
S'\x00\x00\x00\x00\x00\x00\xe5?'
p69
tp70
Rp71
sg18
I01
sg19
I-3117011
sg20
S'kevin.hannon@enron.com'
p72
sg22
I1617011
sg23
g5
sg24
I1035
sg25
g5
sg26
I32
sg27
I11350
sg28
g5
sg29
g8
(g12
S'\x91\x85\xe5\x07\xcf\x08\xc2?'
p73
tp74
Rp75
sg33
I1500000
sg34
I6391065
sg35
I32
sg36
I21
sg37
I853064
sg38
I243293
sg39
I288682
sg40
I5538001
ssS'MORDAUNT KRISTINA M'
p76
(dp77
g3
g5
sg4
g5
sg6
I35018
sg7
g8
(g12
S'\x00\x00\x00\x00\x00\x00\x00\x00'
p78
tp79
Rp80
sg18
I00
sg19
g5
sg20
S'kristina.mordaunt@enron.com'
p81
sg22
g5
sg23
g5
sg24
g5
sg25
g5
sg26
g5
sg27
I1411
sg28
g5
sg29
g8
(g12
S'\x00\x00\x00\x00\x00\x00\x00\x00'
p82
tp83
Rp84
sg33
I325000
sg34
I208510
sg35
g5
sg36
g5
sg37
I208510
sg38
I267093
sg39
I628522
sg40
g5
ssS'MEYER ROCKFORD G'
p85
(dp86
g3
I232
sg4
I1848227
sg6
g5
sg7
g8
(g12
S'\x00\x00\x00\x00\x00\x00\x00\x00'
p87
tp88
Rp89
sg18
I00
sg19
g5
sg20
S'rockford.meyer@enron.com'
p90
sg22
g5
sg23
g5
sg24
I22
sg25
g5
sg26
I28
sg27
g5
sg28
g5
sg29
g8
(g12
S'\x00\x00\x00\x00\x00\x00\x00\x00'
p91
tp92
Rp93
sg33
g5
sg34
I955873
sg35
I0
sg36
I0
sg37
I462384
sg38
g5
sg39
I1848227
sg40
I493489
ssS'MCMAHON JEFFREY'
p94
(dp95
g3
I2355
sg4
g5
sg6
I137108
sg7
g8
(g12
S'UUUUUU\xe1?'
p96
tp97
Rp98
sg18
I00
sg19
g5
sg20
S'jeffrey.mcmahon@enron.com'
p99
sg22
I694862
sg23
g5
sg24
I2228
sg25
g5
sg26
I48
sg27
I297353
sg28
g5
sg29
g8
(g12
S'\xda\xe8\xe1\xf9X\x02\xbd?'
p100
tp101
Rp102
sg33
I2600000
sg34
I1662855
sg35
I58
sg36
I26
sg37
I558801
sg38
I370448
sg39
I4099771
sg40
I1104054
ssS'HORTON STANLEY C'
p103
(dp104
g3
I2350
sg4
I3131860
sg6
g5
sg7
g8
(g12
S'["pJH\xa1\x8c?'
p105
tp106
Rp107
sg18
I00
sg19
g5
sg20
S'stanley.horton@enron.com'
p108
sg22
g5
sg23
g5
sg24
I1074
sg25
g5
sg26
I1073
sg27
g5
sg28
g5
sg29
g8
(g12
S'\xf6J\x86\x86\xc4\r\xb6?'
p109
tp110
Rp111
sg33
g5
sg34
I7256648
sg35
I44
sg36
I15
sg37
I2046079
sg38
g5
sg39
I3131860
sg40
I5210569
ssS'PIPER GREGORY F'
p112
(dp113
g3
I1238
sg4
I1130036
sg6
I43057
sg7
g8
(g12
S'\xd0\xba\xc1\x14\xf9\xac\xcb?'
p114
tp115
Rp116
sg18
I00
sg19
I-33333
sg20
S'greg.piper@enron.com'
p117
sg22
g5
sg23
I-409554
sg24
I742
sg25
g5
sg26
I222
sg27
I778
sg28
g5
sg29
g8
(g12
S'qA\xb7.\xc7\x04\xcd?'
p118
tp119
Rp120
sg33
I400000
sg34
I880290
sg35
I61
sg36
I48
sg37
I409554
sg38
I197091
sg39
I1737629
sg40
I880290
ssS'HUMPHREY GENE E'
p121
(dp122
g3
I128
sg4
I2964506
sg6
I4994
sg7
g8
(g12
S'\x00\x00\x00\x00\x00\x00\xf0?'
p123
tp124
Rp125
sg18
I00
sg19
g5
sg20
S'gene.humphrey@enron.com'
p126
sg22
g5
sg23
g5
sg24
I119
sg25
g5
sg26
I17
sg27
g5
sg28
g5
sg29
g8
(g12
S'2\xb9\x82\x98\\\x01\xd7?'
p127
tp128
Rp129
sg33
g5
sg34
I2282768
sg35
I10
sg36
I17
sg37
g5
sg38
I130724
sg39
I3100224
sg40
I2282768
ssS'UMANOFF ADAM S'
p130
(dp131
g3
I111
sg4
g5
sg6
I53122
sg7
g8
(g12
S'\x00\x00\x00\x00\x00\x00\x00\x00'
p132
tp133
Rp134
sg18
I00
sg19
g5
sg20
S'adam.umanoff@enron.com'
p135
sg22
g5
sg23
g5
sg24
I41
sg25
g5
sg26
I18
sg27
g5
sg28
g5
sg29
g8
(g12
S'\x9cI\xa4l\x9a\xd5\xdf?'
p136
tp137
Rp138
sg33
I788750
sg34
g5
sg35
I12
sg36
I0
sg37
g5
sg38
I288589
sg39
I1130461
sg40
g5
ssS'BLACHMAN JEREMY M'
p139
(dp140
g3
I2475
sg4
g5
sg6
I84208
sg7
g8
(g12
S'\x92$I\x92$I\xc2?'
p141
tp142
Rp143
sg18
I00
sg19
g5
sg20
S'jeremy.blachman@enron.com'
p144
sg22
I831809
sg23
g5
sg24
I2326
sg25
g5
sg26
I14
sg27
I272
sg28
g5
sg29
g8
(g12
S'X\xd7Nc\x9f\xcb\xa7?'
p145
tp146
Rp147
sg33
I850000
sg34
I954354
sg35
I25
sg36
I2
sg37
I189041
sg38
I248546
sg39
I2014835
sg40
I765313
ssS'SUNDE MARTIN'
p148
(dp149
g3
I2647
sg4
g5
sg6
g5
sg7
g8
(g12
S'Q^Cy\r\xe5\xd5?'
p150
tp151
Rp152
sg18
I00
sg19
g5
sg20
S'marty.sunde@enron.com'
p153
sg22
I476451
sg23
g5
sg24
I2565
sg25
g5
sg26
I38
sg27
I111122
sg28
g5
sg29
g8
(g12
S'q\xa22)\xe3v\xb0?'
p154
tp155
Rp156
sg33
I700000
sg34
I698920
sg35
I37
sg36
I13
sg37
I698920
sg38
I257486
sg39
I1545059
sg40
g5
ssS'GIBBS DANA R'
p157
(dp158
g3
I169
sg4
I504610
sg6
g5
sg7
g8
(g12
S'\x00\x00\x00\x00\x00\x00\x00\x00'
p159
tp160
Rp161
sg18
I00
sg19
g5
sg20
S'dana.gibbs@enron.com'
p162
sg22
I461912
sg23
g5
sg24
I23
sg25
g5
sg26
I12
sg27
g5
sg28
g5
sg29
g8
(g12
S'\x00\x00\x00\x00\x00\x00\x00\x00'
p163
tp164
Rp165
sg33
g5
sg34
I2218275
sg35
I0
sg36
I0
sg37
g5
sg38
g5
sg39
I966522
sg40
I2218275
ssS'LOWRY CHARLES P'
p166
(dp167
g3
g5
sg4
g5
sg6
g5
sg7
g8
(g12
S'\x00\x00\x00\x00\x00\x00\x00\x00'
p168
tp169
Rp170
sg18
I00
sg19
g5
sg20
g5
sg22
g5
sg23
I-153686
sg24
g5
sg25
g5
sg26
g5
sg27
g5
sg28
g5
sg29
g8
(g12
S'\x00\x00\x00\x00\x00\x00\x00\x00'
p171
tp172
Rp173
sg33
g5
sg34
I372205
sg35
g5
sg36
g5
sg37
I153686
sg38
g5
sg39
g5
sg40
I372205
ssS'COLWELL WESLEY'
p174
(dp175
g3
I1758
sg4
I27610
sg6
I16514
sg7
g8
(g12
S'\x9a\x99\x99\x99\x99\x99\xd1?'
p176
tp177
Rp178
sg18
I01
sg19
I-144062
sg20
S'wes.colwell@enron.com'
p179
sg22
g5
sg23
g5
sg24
I1132
sg25
g5
sg26
I40
sg27
I101740
sg28
g5
sg29
g8
(g12
S'\x97\xe1\xabf\xa7\x19\xe4?'
p180
tp181
Rp182
sg33
I1200000
sg34
I698242
sg35
I240
sg36
I11
sg37
I698242
sg38
I288542
sg39
I1490344
sg40
g5
ssS'MULLER MARK S'
p183
(dp184
g3
I136
sg4
I842924
sg6
g5
sg7
g8
(g12
S'\x00\x00\x00\x00\x00\x00\x00\x00'
p185
tp186
Rp187
sg18
I00
sg19
I-719000
sg20
S's..muller@enron.com'
p188
sg22
I1725545
sg23
g5
sg24
I114
sg25
g5
sg26
I16
sg27
I947
sg28
g5
sg29
g8
(g12
S'\xabRB\xaf\x83\xfb\xd9?'
p189
tp190
Rp191
sg33
I1100000
sg34
I1416848
sg35
I12
sg36
I0
sg37
I360528
sg38
I251654
sg39
I3202070
sg40
I1056320
ssS'JACKSON CHARLENE R'
p192
(dp193
g3
I258
sg4
g5
sg6
I10181
sg7
g8
(g12
S'n\xdb\xb6m\xdb\xb6\xd5?'
p194
tp195
Rp196
sg18
I00
sg19
g5
sg20
S'charlene.jackson@enron.com'
p197
sg22
g5
sg23
g5
sg24
I117
sg25
g5
sg26
I56
sg27
I2435
sg28
g5
sg29
g8
(g12
S'o\x07\xb0y\xa2\x88\xdc?'
p198
tp199
Rp200
sg33
I250000
sg34
I725735
sg35
I25
sg36
I19
sg37
I540672
sg38
I288558
sg39
I551174
sg40
I185063
ssS'WESTFAHL RICHARD K'
p201
(dp202
g3
g5
sg4
g5
sg6
I51870
sg7
g8
(g12
S'\x00\x00\x00\x00\x00\x00\x00\x00'
p203
tp204
Rp205
sg18
I00
sg19
I-10800
sg20
S'dick.westfahl@enron.com'
p206
sg22
I256191
sg23
g5
sg24
g5
sg25
g5
sg26
g5
sg27
I401130
sg28
g5
sg29
g8
(g12
S'\x00\x00\x00\x00\x00\x00\x00\x00'
p207
tp208
Rp209
sg33
g5
sg34
I384930
sg35
g5
sg36
g5
sg37
I384930
sg38
I63744
sg39
I762135
sg40
g5
ssS'WALTERS GARETH W'
p210
(dp211
g3
g5
sg4
I53625
sg6
I33785
sg7
g8
(g12
S'\x00\x00\x00\x00\x00\x00\x00\x00'
p212
tp213
Rp214
sg18
I00
sg19
g5
sg20
g5
sg22
g5
sg23
g5
sg24
g5
sg25
g5
sg26
g5
sg27
g5
sg28
g5
sg29
g8
(g12
S'\x00\x00\x00\x00\x00\x00\x00\x00'
p215
tp216
Rp217
sg33
g5
sg34
I1030329
sg35
g5
sg36
g5
sg37
g5
sg38
g5
sg39
I87410
sg40
I1030329
ssS'WALLS JR ROBERT H'
p218
(dp219
g3
I671
sg4
g5
sg6
I50936
sg7
g8
(g12
S'\x00\x00\x00\x00\x00\x00\x00\x00'
p220
tp221
Rp222
sg18
I00
sg19
g5
sg20
S'rob.walls@enron.com'
p223
sg22
I540751
sg23
g5
sg24
I215
sg25
g5
sg26
I146
sg27
I2
sg28
g5
sg29
g8
(g12
S'\x81\xd7\x0cr~\xd7\xbd?'
p224
tp225
Rp226
sg33
I850000
sg34
I5898997
sg35
I17
sg36
I0
sg37
I1552453
sg38
I357091
sg39
I1798780
sg40
I4346544
ssS'KITCHEN LOUISE'
p227
(dp228
g3
I8305
sg4
g5
sg6
I5774
sg7
g8
(g12
S'\xdaKh/\xa1\xbd\xbc?'
p229
tp230
Rp231
sg18
I00
sg19
g5
sg20
S'louise.kitchen@enron.com'
p232
sg22
g5
sg23
g5
sg24
I3669
sg25
g5
sg26
I1728
sg27
I93925
sg28
g5
sg29
g8
(g12
S'\xac\x1c\x03I\x9d\xcc\xc1?'
p233
tp234
Rp235
sg33
I3100000
sg34
I547143
sg35
I251
sg36
I194
sg37
I466101
sg38
I271442
sg39
I3471141
sg40
I81042
ssS'CHAN RONNIE'
p236
(dp237
g3
g5
sg4
g5
sg6
g5
sg7
g8
(g12
S'\x00\x00\x00\x00\x00\x00\x00\x00'
p238
tp239
Rp240
sg18
I00
sg19
I-98784
sg20
g5
sg22
g5
sg23
I-32460
sg24
g5
sg25
g5
sg26
g5
sg27
g5
sg28
I98784
sg29
g8
(g12
S'\x00\x00\x00\x00\x00\x00\x00\x00'
p241
tp242
Rp243
sg33
g5
sg34
g5
sg35
g5
sg36
g5
sg37
I32460
sg38
g5
sg39
g5
sg40
g5
ssS'BELFER ROBERT'
p244
(dp245
g3
g5
sg4
I-102500
sg6
g5
sg7
g8
(g12
S'\x00\x00\x00\x00\x00\x00\x00\x00'
p246
tp247
Rp248
sg18
I00
sg19
g5
sg20
g5
sg22
g5
sg23
I44093
sg24
g5
sg25
g5
sg26
g5
sg27
g5
sg28
I3285
sg29
g8
(g12
S'\x00\x00\x00\x00\x00\x00\x00\x00'
p249
tp250
Rp251
sg33
g5
sg34
I-44093
sg35
g5
sg36
g5
sg37
g5
sg38
g5
sg39
I102500
sg40
I3285
ssS'SHANKMAN JEFFREY A'
p252
(dp253
g3
I3221
sg4
g5
sg6
I178979
sg7
g8
(g12
S'\xb3\xb1\xd3O\x9c\xb3\x9f?'
p254
tp255
Rp256
sg18
I00
sg19
g5
sg20
S'jeffrey.shankman@enron.com'
p257
sg22
I554422
sg23
g5
sg24
I1730
sg25
g5
sg26
I2681
sg27
I1191
sg28
g5
sg29
g8
(g12
S'\xcd\x7f\xd8\xec\xec/\xc1?'
p258
tp259
Rp260
sg33
I2000000
sg34
I2072035
sg35
I94
sg36
I83
sg37
I630137
sg38
I304110
sg39
I3038702
sg40
I1441898
ssS'WODRASKA JOHN'
p261
(dp262
g3
g5
sg4
g5
sg6
g5
sg7
g8
(g12
S'\x00\x00\x00\x00\x00\x00\x00\x00'
p263
tp264
Rp265
sg18
I00
sg19
g5
sg20
S'john.wodraska@enron.com'
p266
sg22
g5
sg23
g5
sg24
g5
sg25
g5
sg26
g5
sg27
I189583
sg28
g5
sg29
g8
(g12
S'\x00\x00\x00\x00\x00\x00\x00\x00'
p267
tp268
Rp269
sg33
g5
sg34
g5
sg35
g5
sg36
g5
sg37
g5
sg38
g5
sg39
I189583
sg40
g5
ssS'BERGSIEKER RICHARD P'
p270
(dp271
g3
I383
sg4
g5
sg6
I59175
sg7
g8
(g12
S'\x00\x00\x00\x00\x00\x00\x00\x00'
p272
tp273
Rp274
sg18
I00
sg19
I-485813
sg20
S'rick.bergsieker@enron.com'
p275
sg22
I180250
sg23
g5
sg24
I233
sg25
g5
sg26
I59
sg27
I427316
sg28
g5
sg29
g8
(g12
S"\x82'FKc\x9a\xa8?"
p276
tp277
Rp278
sg33
I250000
sg34
I659249
sg35
I4
sg36
I0
sg37
I659249
sg38
I187922
sg39
I618850
sg40
g5
ssS'URQUHART JOHN A'
p279
(dp280
g3
g5
sg4
g5
sg6
I228656
sg7
g8
(g12
S'\x00\x00\x00\x00\x00\x00\x00\x00'
p281
tp282
Rp283
sg18
I00
sg19
I-36666
sg20
g5
sg22
g5
sg23
g5
sg24
g5
sg25
g5
sg26
g5
sg27
g5
sg28
I36666
sg29
g8
(g12
S'\x00\x00\x00\x00\x00\x00\x00\x00'
p284
tp285
Rp286
sg33
g5
sg34
g5
sg35
g5
sg36
g5
sg37
g5
sg38
g5
sg39
I228656
sg40
g5
ssS'BIBI PHILIPPE A'
p287
(dp288
g3
I1607
sg4
g5
sg6
I38559
sg7
g8
(g12
S'\x9a\x99\x99\x99\x99\x99\xc9?'
p289
tp290
Rp291
sg18
I00
sg19
g5
sg20
S'philippe.bibi@enron.com'
p292
sg22
I369721
sg23
g5
sg24
I1336
sg25
g5
sg26
I40
sg27
I425688
sg28
g5
sg29
g8
(g12
S'\xaa\xc1\x17g\xb0\xdb\xb0?'
p293
tp294
Rp295
sg33
I1000000
sg34
I1843816
sg35
I23
sg36
I8
sg37
I378082
sg38
I213625
sg39
I2047593
sg40
I1465734
ssS'RIEKER PAULA H'
p296
(dp297
g3
I1328
sg4
I214678
sg6
I33271
sg7
g8
(g12
S'\xbb\x12\xb5+Q\xbb\xe2?'
p298
tp299
Rp300
sg18
I01
sg19
I-100000
sg20
S'paula.rieker@enron.com'
p301
sg22
g5
sg23
g5
sg24
I1258
sg25
g5
sg26
I82
sg27
I1950
sg28
g5
sg29
g8
(g12
S'$\xdeS*\x17\x0b\xbf?'
p302
tp303
Rp304
sg33
I700000
sg34
I1918887
sg35
I35
sg36
I48
sg37
I283649
sg38
I249201
sg39
I1099100
sg40
I1635238
ssS'WHALEY DAVID A'
p305
(dp306
g3
g5
sg4
g5
sg6
g5
sg7
g8
(g12
S'\x00\x00\x00\x00\x00\x00\x00\x00'
p307
tp308
Rp309
sg18
I00
sg19
g5
sg20
g5
sg22
g5
sg23
g5
sg24
g5
sg25
g5
sg26
g5
sg27
g5
sg28
g5
sg29
g8
(g12
S'\x00\x00\x00\x00\x00\x00\x00\x00'
p310
tp311
Rp312
sg33
g5
sg34
I98718
sg35
g5
sg36
g5
sg37
g5
sg38
g5
sg39
g5
sg40
I98718
ssS'BECK SALLY W'
p313
(dp314
g3
I7315
sg4
g5
sg6
I37172
sg7
g8
(g12
S']\x92\xdbe\xc0\xc0\xb6?'
p315
tp316
Rp317
sg18
I00
sg19
g5
sg20
S'sally.beck@enron.com'
p318
sg22
g5
sg23
g5
sg24
I2639
sg25
g5
sg26
I4343
sg27
I566
sg28
g5
sg29
g8
(g12
S'\x03>p\x9c\xe5/\xb7?'
p319
tp320
Rp321
sg33
I700000
sg34
I126027
sg35
I144
sg36
I386
sg37
I126027
sg38
I231330
sg39
I969068
sg40
g5
ssS'HAUG DAVID L'
p322
(dp323
g3
I573
sg4
g5
sg6
I475
sg7
g8
(g12
S'Cy\r\xe55\x94\xd7?'
p324
tp325
Rp326
sg18
I00
sg19
g5
sg20
S'david.haug@enron.com'
p327
sg22
g5
sg23
g5
sg24
I471
sg25
g5
sg26
I19
sg27
g5
sg28
g5
sg29
g8
(g12
S'\xb5\xfeW\xcd\xeaq\xa0?'
p328
tp329
Rp330
sg33
g5
sg34
I2217299
sg35
I4
sg36
I7
sg37
I2217299
sg38
g5
sg39
I475
sg40
g5
ssS'ECHOLS JOHN B'
p331
(dp332
g3
g5
sg4
g5
sg6
I21530
sg7
g8
(g12
S'\x00\x00\x00\x00\x00\x00\x00\x00'
p333
tp334
Rp335
sg18
I00
sg19
g5
sg20
S'john.echols@enron.com'
p336
sg22
I2234774
sg23
g5
sg24
g5
sg25
g5
sg26
g5
sg27
I53775
sg28
g5
sg29
g8
(g12
S'\x00\x00\x00\x00\x00\x00\x00\x00'
p337
tp338
Rp339
sg33
I200000
sg34
I1008941
sg35
g5
sg36
g5
sg37
I407503
sg38
I182245
sg39
I2692324
sg40
I601438
ssS'MENDELSOHN JOHN'
p340
(dp341
g3
g5
sg4
g5
sg6
I148
sg7
g8
(g12
S'\x00\x00\x00\x00\x00\x00\x00\x00'
p342
tp343
Rp344
sg18
I00
sg19
I-103750
sg20
g5
sg22
g5
sg23
g5
sg24
g5
sg25
g5
sg26
g5
sg27
g5
sg28
I103750
sg29
g8
(g12
S'\x00\x00\x00\x00\x00\x00\x00\x00'
p345
tp346
Rp347
sg33
g5
sg34
g5
sg35
g5
sg36
g5
sg37
g5
sg38
g5
sg39
I148
sg40
g5
ssS'HICKERSON GARY J'
p348
(dp349
g3
I1320
sg4
g5
sg6
I98849
sg7
g8
(g12
S'h/\xa1\xbd\x84\xf6\xa2?'
p350
tp351
Rp352
sg18
I00
sg19
g5
sg20
S'gary.hickerson@enron.com'
p353
sg22
I69223
sg23
g5
sg24
I900
sg25
g5
sg26
I27
sg27
I1936
sg28
g5
sg29
g8
(g12
S'\x82!{\x8a\xb7\xd8\xc1?'
p354
tp355
Rp356
sg33
I1700000
sg34
I441096
sg35
I40
sg36
I1
sg37
I441096
sg38
I211788
sg39
I2081796
sg40
g5
ssS'CLINE KENNETH W'
p357
(dp358
g3
g5
sg4
g5
sg6
g5
sg7
g8
(g12
S'\x00\x00\x00\x00\x00\x00\x00\x00'
p359
tp360
Rp361
sg18
I00
sg19
g5
sg20
g5
sg22
g5
sg23
I-472568
sg24
g5
sg25
g5
sg26
g5
sg27
g5
sg28
g5
sg29
g8
(g12
S'\x00\x00\x00\x00\x00\x00\x00\x00'
p362
tp363
Rp364
sg33
g5
sg34
I189518
sg35
g5
sg36
g5
sg37
I662086
sg38
g5
sg39
g5
sg40
g5
ssS'LEWIS RICHARD'
p365
(dp366
g3
I952
sg4
g5
sg6
g5
sg7
g8
(g12
S'\x00\x00\x00\x00\x00\x00\x00\x00'
p367
tp368
Rp369
sg18
I00
sg19
g5
sg20
S'richard.lewis@enron.com'
p370
sg22
g5
sg23
g5
sg24
I739
sg25
g5
sg26
I26
sg27
g5
sg28
g5
sg29
g8
(g12
S'\xbbN\x88\x8e\xc6\xbe\xa8?'
p371
tp372
Rp373
sg33
g5
sg34
I850477
sg35
I10
sg36
I0
sg37
g5
sg38
g5
sg39
g5
sg40
I850477
ssS'HAYES ROBERT E'
p374
(dp375
g3
I504
sg4
I7961
sg6
g5
sg7
g8
(g12
S'\x00\x00\x00\x00\x00\x00\x00\x00'
p376
tp377
Rp378
sg18
I00
sg19
g5
sg20
S'robert.hayes@enron.com'
p379
sg22
g5
sg23
g5
sg24
I50
sg25
g5
sg26
I12
sg27
g5
sg28
g5
sg29
g8
(g12
S'|;P`F\xb2\xc2?'
p380
tp381
Rp382
sg33
g5
sg34
I151418
sg35
I16
sg36
I0
sg37
I151418
sg38
g5
sg39
I7961
sg40
g5
ssS'MCCARTY DANNY J'
p383
(dp384
g3
I1433
sg4
g5
sg6
g5
sg7
g8
(g12
S'\x90\xd10\x01\x19\r\x83?'
p385
tp386
Rp387
sg18
I00
sg19
g5
sg20
S'danny.mccarty@enron.com'
p388
sg22
g5
sg23
g5
sg24
I508
sg25
g5
sg26
I215
sg27
g5
sg28
g5
sg29
g8
(g12
S'|\xe4\xf7r\x8f\x8c\xb4?'
p389
tp390
Rp391
sg33
g5
sg34
I758931
sg35
I25
sg36
I2
sg37
I94556
sg38
g5
sg39
g5
sg40
I664375
ssS'KOPPER MICHAEL J'
p392
(dp393
g3
g5
sg4
g5
sg6
I118134
sg7
g8
(g12
S'\x00\x00\x00\x00\x00\x00\x00\x00'
p394
tp395
Rp396
sg18
I01
sg19
g5
sg20
S'michael.kopper@enron.com'
p397
sg22
I602671
sg23
g5
sg24
g5
sg25
g5
sg26
g5
sg27
I907502
sg28
g5
sg29
g8
(g12
S'\x00\x00\x00\x00\x00\x00\x00\x00'
p398
tp399
Rp400
sg33
I800000
sg34
I985032
sg35
g5
sg36
g5
sg37
I985032
sg38
I224305
sg39
I2652612
sg40
g5
ssS'LEFF DANIEL P'
p401
(dp402
g3
I2822
sg4
g5
sg6
g5
sg7
g8
(g12
S'\x1c\xc7q\x1c\xc7q\xcc?'
p403
tp404
Rp405
sg18
I00
sg19
g5
sg20
S'dan.leff@enron.com'
p406
sg22
I1387399
sg23
g5
sg24
I2672
sg25
g5
sg26
I63
sg27
I3083
sg28
g5
sg29
g8
(g12
S'":fF\x0f\xf7\xbb?'
p407
tp408
Rp409
sg33
I1000000
sg34
I360528
sg35
I67
sg36
I14
sg37
I360528
sg38
I273746
sg39
I2664228
sg40
g5
ssS'LAVORATO JOHN J'
p410
(dp411
g3
I7259
sg4
g5
sg6
I49537
sg7
g8
(g12
S'_\xc5\xcf\xfe\xebY\xc4?'
p412
tp413
Rp414
sg18
I00
sg19
g5
sg20
S'john.lavorato@enron.com'
p415
sg22
I2035380
sg23
g5
sg24
I3962
sg25
g5
sg26
I2585
sg27
I1552
sg28
g5
sg29
g8
(g12
S'OrY27k\xd5?'
p416
tp417
Rp418
sg33
I8000000
sg34
I5167144
sg35
I528
sg36
I411
sg37
I1008149
sg38
I339288
sg39
I10425757
sg40
I4158995
ssS'BERBERIAN DAVID'
p419
(dp420
g3
g5
sg4
g5
sg6
I11892
sg7
g8
(g12
S'\x00\x00\x00\x00\x00\x00\x00\x00'
p421
tp422
Rp423
sg18
I00
sg19
g5
sg20
S'david.berberian@enron.com'
p424
sg22
g5
sg23
g5
sg24
g5
sg25
g5
sg26
g5
sg27
g5
sg28
g5
sg29
g8
(g12
S'\x00\x00\x00\x00\x00\x00\x00\x00'
p425
tp426
Rp427
sg33
g5
sg34
I2493616
sg35
g5
sg36
g5
sg37
I869220
sg38
I216582
sg39
I228474
sg40
I1624396
ssS'DETMERING TIMOTHY J'
p428
(dp429
g3
g5
sg4
I875307
sg6
I52255
sg7
g8
(g12
S'\x00\x00\x00\x00\x00\x00\x00\x00'
p430
tp431
Rp432
sg18
I00
sg19
I-775241
sg20
S'timothy.detmering@enron.com'
p433
sg22
I415657
sg23
I-315068
sg24
g5
sg25
g5
sg26
g5
sg27
I1105
sg28
g5
sg29
g8
(g12
S'\x00\x00\x00\x00\x00\x00\x00\x00'
p434
tp435
Rp436
sg33
I425000
sg34
I2027865
sg35
g5
sg36
g5
sg37
I315068
sg38
I210500
sg39
I1204583
sg40
I2027865
ssS'WAKEHAM JOHN'
p437
(dp438
g3
g5
sg4
g5
sg6
I103773
sg7
g8
(g12
S'\x00\x00\x00\x00\x00\x00\x00\x00'
p439
tp440
Rp441
sg18
I00
sg19
g5
sg20
g5
sg22
g5
sg23
g5
sg24
g5
sg25
g5
sg26
g5
sg27
g5
sg28
I109298
sg29
g8
(g12
S'\x00\x00\x00\x00\x00\x00\x00\x00'
p442
tp443
Rp444
sg33
g5
sg34
g5
sg35
g5
sg36
g5
sg37
g5
sg38
g5
sg39
I213071
sg40
g5
ssS'POWERS WILLIAM'
p445
(dp446
g3
I653
sg4
g5
sg6
g5
sg7
g8
(g12
S'\x00\x00\x00\x00\x00\x00\x00\x00'
p447
tp448
Rp449
sg18
I00
sg19
I-17500
sg20
S'ken.powers@enron.com'
p450
sg22
g5
sg23
g5
sg24
I12
sg25
g5
sg26
I26
sg27
g5
sg28
I17500
sg29
g8
(g12
S'\x00\x00\x00\x00\x00\x00\x00\x00'
p451
tp452
Rp453
sg33
g5
sg34
g5
sg35
I0
sg36
I0
sg37
g5
sg38
g5
sg39
g5
sg40
g5
ssS'GOLD JOSEPH'
p454
(dp455
g3
g5
sg4
g5
sg6
g5
sg7
g8
(g12
S'\x00\x00\x00\x00\x00\x00\x00\x00'
p456
tp457
Rp458
sg18
I00
sg19
g5
sg20
S'joe.gold@enron.com'
p459
sg22
I304805
sg23
g5
sg24
g5
sg25
g5
sg26
g5
sg27
I819288
sg28
g5
sg29
g8
(g12
S'\x00\x00\x00\x00\x00\x00\x00\x00'
p460
tp461
Rp462
sg33
I750000
sg34
I877611
sg35
g5
sg36
g5
sg37
I441096
sg38
I272880
sg39
I2146973
sg40
I436515
ssS'BANNANTINE JAMES M'
p463
(dp464
g3
I566
sg4
g5
sg6
I56301
sg7
g8
(g12
S'\x00\x00\x00\x00\x00\x00\x00\x00'
p465
tp466
Rp467
sg18
I00
sg19
I-5104
sg20
S'james.bannantine@enron.com'
p468
sg22
g5
sg23
I-560222
sg24
I465
sg25
g5
sg26
I29
sg27
I864523
sg28
g5
sg29
g8
(g12
S'm\xff\xe5\xcaJJ\xd4?'
p469
tp470
Rp471
sg33
g5
sg34
I5243487
sg35
I39
sg36
I0
sg37
I1757552
sg38
I477
sg39
I916197
sg40
I4046157
ssS'DUNCAN JOHN H'
p472
(dp473
g3
g5
sg4
g5
sg6
g5
sg7
g8
(g12
S'\x00\x00\x00\x00\x00\x00\x00\x00'
p474
tp475
Rp476
sg18
I00
sg19
I-25000
sg20
g5
sg22
g5
sg23
g5
sg24
g5
sg25
g5
sg26
g5
sg27
g5
sg28
I102492
sg29
g8
(g12
S'\x00\x00\x00\x00\x00\x00\x00\x00'
p477
tp478
Rp479
sg33
g5
sg34
I371750
sg35
g5
sg36
g5
sg37
g5
sg38
g5
sg39
I77492
sg40
I371750
ssS'SHAPIRO RICHARD S'
p480
(dp481
g3
I15149
sg4
g5
sg6
I137767
sg7
g8
(g12
S'\xb3\xd2\xe8\x11\x15d\xab?'
p482
tp483
Rp484
sg18
I00
sg19
g5
sg20
S'richard.shapiro@enron.com'
p485
sg22
g5
sg23
g5
sg24
I4527
sg25
g5
sg26
I1215
sg27
I705
sg28
g5
sg29
g8
(g12
S'3#\xb2\xa3\xc5\x03\x97?'
p486
tp487
Rp488
sg33
I650000
sg34
I987001
sg35
I74
sg36
I65
sg37
I379164
sg38
I269076
sg39
I1057548
sg40
I607837
ssS'SHERRIFF JOHN R'
p489
(dp490
g3
I3187
sg4
g5
sg6
g5
sg7
g8
(g12
S'\x00\x00\x00\x00\x00\x00\xd0?'
p491
tp492
Rp493
sg18
I00
sg19
g5
sg20
S'john.sherriff@enron.com'
p494
sg22
I554422
sg23
g5
sg24
I2103
sg25
g5
sg26
I92
sg27
I1852186
sg28
g5
sg29
g8
(g12
S'r\x19\xed\x8ed\xb2\xa4?'
p495
tp496
Rp497
sg33
I1500000
sg34
I3128982
sg35
I28
sg36
I23
sg37
I1293424
sg38
I428780
sg39
I4335388
sg40
I1835558
ssS'SHELBY REX'
p498
(dp499
g3
I225
sg4
g5
sg6
I22884
sg7
g8
(g12
S'\x97o\xf9\x96o\xf9\xd6?'
p500
tp501
Rp502
sg18
I01
sg19
I-4167
sg20
S'rex.shelby@enron.com'
p503
sg22
g5
sg23
g5
sg24
I91
sg25
g5
sg26
I39
sg27
I1573324
sg28
g5
sg29
g8
(g12
S'\r\x884\x9a\x82\x03\xd1?'
p504
tp505
Rp506
sg33
I200000
sg34
I2493616
sg35
I13
sg36
I14
sg37
I869220
sg38
I211844
sg39
I2003885
sg40
I1624396
ssS'LEMAISTRE CHARLES'
p507
(dp508
g3
g5
sg4
g5
sg6
g5
sg7
g8
(g12
S'\x00\x00\x00\x00\x00\x00\x00\x00'
p509
tp510
Rp511
sg18
I00
sg19
I-25000
sg20
g5
sg22
g5
sg23
g5
sg24
g5
sg25
g5
sg26
g5
sg27
g5
sg28
I112492
sg29
g8
(g12
S'\x00\x00\x00\x00\x00\x00\x00\x00'
p512
tp513
Rp514
sg33
g5
sg34
I412878
sg35
g5
sg36
g5
sg37
g5
sg38
g5
sg39
I87492
sg40
I412878
ssS'DEFFNER JOSEPH M'
p515
(dp516
g3
I714
sg4
g5
sg6
I41626
sg7
g8
(g12
S'\xd0\xba\xc1\x14\xf9\xac\xab?'
p517
tp518
Rp519
sg18
I00
sg19
g5
sg20
S'joseph.deffner@enron.com'
p520
sg22
I335349
sg23
g5
sg24
I552
sg25
g5
sg26
I74
sg27
I25553
sg28
g5
sg29
g8
(g12
S'sK\xed\x9d\xd3\xb6\xe7?'
p521
tp522
Rp523
sg33
I600000
sg34
I159211
sg35
I115
sg36
I4
sg37
I141833
sg38
I206121
sg39
I1208649
sg40
I17378
ssS'KISHKILL JOSEPH G'
p524
(dp525
g3
g5
sg4
g5
sg6
I116335
sg7
g8
(g12
S'\x00\x00\x00\x00\x00\x00\x00\x00'
p526
tp527
Rp528
sg18
I00
sg19
I-51042
sg20
S'joe.kishkill@enron.com'
p529
sg22
g5
sg23
g5
sg24
g5
sg25
g5
sg26
g5
sg27
I465357
sg28
g5
sg29
g8
(g12
S'\x00\x00\x00\x00\x00\x00\x00\x00'
p530
tp531
Rp532
sg33
g5
sg34
I1034346
sg35
g5
sg36
g5
sg37
I1034346
sg38
I174246
sg39
I704896
sg40
g5
ssS'WHALLEY LAWRENCE G'
p533
(dp534
g3
I6019
sg4
g5
sg6
I57838
sg7
g8
(g12
S"'!\x8a\xbf\xc8\x19\xa6?"
p535
tp536
Rp537
sg18
I00
sg19
g5
sg20
S'greg.whalley@enron.com'
p538
sg22
I808346
sg23
g5
sg24
I3920
sg25
g5
sg26
I556
sg27
I301026
sg28
g5
sg29
g8
(g12
S'l\xab\x017\x0b3\xc2?'
p539
tp540
Rp541
sg33
I3000000
sg34
I6079137
sg35
I186
sg36
I24
sg37
I2796177
sg38
I510364
sg39
I4677574
sg40
I3282960
ssS'MCCONNELL MICHAEL S'
p542
(dp543
g3
I3329
sg4
g5
sg6
I81364
sg7
g8
(g12
S'8bvr\xc1\x1c\xb2?'
p544
tp545
Rp546
sg18
I00
sg19
g5
sg20
S'mike.mcconnell@enron.com'
p547
sg22
I554422
sg23
g5
sg24
I2189
sg25
g5
sg26
I2742
sg27
I540
sg28
g5
sg29
g8
(g12
S'\xc6R\r\x9f\x9aF\xc0?'
p548
tp549
Rp550
sg33
I1100000
sg34
I3101279
sg35
I92
sg36
I194
sg37
I1478269
sg38
I365038
sg39
I2101364
sg40
I1623010
ssS'PIRO JIM'
p551
(dp552
g3
I58
sg4
g5
sg6
g5
sg7
g8
(g12
S'\x00\x00\x00\x00\x00\x00\xb0?'
p553
tp554
Rp555
sg18
I00
sg19
g5
sg20
S'jim.piro@enron.com'
p556
sg22
g5
sg23
g5
sg24
I3
sg25
g5
sg26
I16
sg27
g5
sg28
g5
sg29
g8
(g12
S'\x00\x00\x00\x00\x00\x00\x00\x00'
p557
tp558
Rp559
sg33
g5
sg34
I47304
sg35
I0
sg36
I1
sg37
I47304
sg38
g5
sg39
g5
sg40
g5
ssS'DELAINEY DAVID W'
p560
(dp561
g3
I3093
sg4
g5
sg6
I86174
sg7
g8
(g12
S'f\x99e\x96Yf\xc9?'
p562
tp563
Rp564
sg18
I01
sg19
g5
sg20
S'david.delainey@enron.com'
p565
sg22
I1294981
sg23
g5
sg24
I2097
sg25
g5
sg26
I3069
sg27
I1661
sg28
g5
sg29
g8
(g12
S'\xc8\xd8\xff4P"\xb9?'
p566
tp567
Rp568
sg33
I3000000
sg34
I3614261
sg35
I66
sg36
I609
sg37
I1323148
sg38
I365163
sg39
I4747979
sg40
I2291113
ssS'SULLIVAN-SHAKLOVITZ COLLEEN'
p569
(dp570
g3
g5
sg4
I181993
sg6
g5
sg7
g8
(g12
S'\x00\x00\x00\x00\x00\x00\x00\x00'
p571
tp572
Rp573
sg18
I00
sg19
g5
sg20
g5
sg22
I554422
sg23
g5
sg24
g5
sg25
g5
sg26
g5
sg27
I162
sg28
g5
sg29
g8
(g12
S'\x00\x00\x00\x00\x00\x00\x00\x00'
p574
tp575
Rp576
sg33
I100000
sg34
I1362375
sg35
g5
sg36
g5
sg37
g5
sg38
I162779
sg39
I999356
sg40
I1362375
ssS'WROBEL BRUCE'
p577
(dp578
g3
g5
sg4
g5
sg6
g5
sg7
g8
(g12
S'\x00\x00\x00\x00\x00\x00\x00\x00'
p579
tp580
Rp581
sg18
I00
sg19
g5
sg20
g5
sg22
g5
sg23
g5
sg24
g5
sg25
g5
sg26
g5
sg27
g5
sg28
g5
sg29
g8
(g12
S'\x00\x00\x00\x00\x00\x00\x00\x00'
p582
tp583
Rp584
sg33
g5
sg34
I139130
sg35
g5
sg36
g5
sg37
g5
sg38
g5
sg39
g5
sg40
I139130
ssS'LINDHOLM TOD A'
p585
(dp586
g3
g5
sg4
I204075
sg6
I57727
sg7
g8
(g12
S'\x00\x00\x00\x00\x00\x00\x00\x00'
p587
tp588
Rp589
sg18
I00
sg19
g5
sg20
S'tod.lindholm@enron.com'
p590
sg22
I175000
sg23
g5
sg24
g5
sg25
g5
sg26
g5
sg27
I2630
sg28
g5
sg29
g8
(g12
S'\x00\x00\x00\x00\x00\x00\x00\x00'
p591
tp592
Rp593
sg33
I200000
sg34
I3064208
sg35
g5
sg36
g5
sg37
I514847
sg38
I236457
sg39
I875889
sg40
I2549361
ssS'MEYER JEROME J'
p594
(dp595
g3
g5
sg4
g5
sg6
I2151
sg7
g8
(g12
S'\x00\x00\x00\x00\x00\x00\x00\x00'
p596
tp597
Rp598
sg18
I00
sg19
I-38346
sg20
g5
sg22
g5
sg23
g5
sg24
g5
sg25
g5
sg26
g5
sg27
g5
sg28
I38346
sg29
g8
(g12
S'\x00\x00\x00\x00\x00\x00\x00\x00'
p599
tp600
Rp601
sg33
g5
sg34
g5
sg35
g5
sg36
g5
sg37
g5
sg38
g5
sg39
I2151
sg40
g5
ssS'LAY KENNETH L'
p602
(dp603
g3
I4273
sg4
I202911
sg6
I99832
sg7
g8
(g12
S'\x1c\xc7q\x1c\xc7q\xdc?'
p604
tp605
Rp606
sg18
I01
sg19
I-300000
sg20
S'kenneth.lay@enron.com'
p607
sg22
I3600000
sg23
g5
sg24
I2411
sg25
I81525000
sg26
I36
sg27
I10359729
sg28
g5
sg29
g8
(g12
S'8(\xbd)\xe8\xf3\xc0?'
p608
tp609
Rp610
sg33
I7000000
sg34
I49110078
sg35
I123
sg36
I16
sg37
I14761694
sg38
I1072321
sg39
I103559793
sg40
I34348384
ssS'BUTTS ROBERT H'
p611
(dp612
g3
g5
sg4
g5
sg6
I9410
sg7
g8
(g12
S'\x00\x00\x00\x00\x00\x00\x00\x00'
p613
tp614
Rp615
sg18
I00
sg19
I-75000
sg20
S'bob.butts@enron.com'
p616
sg22
I175000
sg23
g5
sg24
g5
sg25
g5
sg26
g5
sg27
I150656
sg28
g5
sg29
g8
(g12
S'\x00\x00\x00\x00\x00\x00\x00\x00'
p617
tp618
Rp619
sg33
I750000
sg34
I417619
sg35
g5
sg36
g5
sg37
I417619
sg38
I261516
sg39
I1271582
sg40
g5
ssS'OLSON CINDY K'
p620
(dp621
g3
I1184
sg4
I77716
sg6
I63791
sg7
g8
(g12
S"b'vb'v\xd2?"
p622
tp623
Rp624
sg18
I00
sg19
g5
sg20
S'cindy.olson@enron.com'
p625
sg22
I100000
sg23
g5
sg24
I856
sg25
g5
sg26
I52
sg27
I972
sg28
g5
sg29
g8
(g12
S'\x02\xae\xe6\x83\x80\xe5\xb3?'
p626
tp627
Rp628
sg33
I750000
sg34
I2606763
sg35
I20
sg36
I15
sg37
I969729
sg38
I329078
sg39
I1321557
sg40
I1637034
ssS'MCDONALD REBECCA'
p629
(dp630
g3
I894
sg4
g5
sg6
g5
sg7
g8
(g12
S'\x14;\xb1\x13;\xb1\xb3?'
p631
tp632
Rp633
sg18
I00
sg19
g5
sg20
S'rebecca.mcdonald@enron.com'
p634
sg22
g5
sg23
g5
sg24
I720
sg25
g5
sg26
I13
sg27
g5
sg28
g5
sg29
g8
(g12
S'kj\xb3\xbcb\xc9\xd1?'
p635
tp636
Rp637
sg33
g5
sg34
I1691366
sg35
I54
sg36
I1
sg37
I934065
sg38
g5
sg39
g5
sg40
I757301
ssS'CUMBERLAND MICHAEL S'
p638
(dp639
g3
g5
sg4
g5
sg6
I22344
sg7
g8
(g12
S'\x00\x00\x00\x00\x00\x00\x00\x00'
p640
tp641
Rp642
sg18
I00
sg19
g5
sg20
g5
sg22
I275000
sg23
g5
sg24
g5
sg25
g5
sg26
g5
sg27
I713
sg28
g5
sg29
g8
(g12
S'\x00\x00\x00\x00\x00\x00\x00\x00'
p643
tp644
Rp645
sg33
I325000
sg34
I207940
sg35
g5
sg36
g5
sg37
I207940
sg38
I184899
sg39
I807956
sg40
g5
ssS'GAHN ROBERT S'
p646
(dp647
g3
g5
sg4
I73122
sg6
I50080
sg7
g8
(g12
S'\x00\x00\x00\x00\x00\x00\x00\x00'
p648
tp649
Rp650
sg18
I00
sg19
I-1042
sg20
g5
sg22
g5
sg23
g5
sg24
g5
sg25
g5
sg26
g5
sg27
I76547
sg28
g5
sg29
g8
(g12
S'\x00\x00\x00\x00\x00\x00\x00\x00'
p651
tp652
Rp653
sg33
I509870
sg34
I318607
sg35
g5
sg36
g5
sg37
I235370
sg38
I192008
sg39
I900585
sg40
I83237
ssS'MCCLELLAN GEORGE'
p654
(dp655
g3
I1744
sg4
g5
sg6
I228763
sg7
g8
(g12
S'\x00\x00\x00\x00\x00\x00\x00\x00'
p656
tp657
Rp658
sg18
I00
sg19
I-125000
sg20
S'george.mcclellan@enron.com'
p659
sg22
g5
sg23
g5
sg24
I1469
sg25
g5
sg26
I49
sg27
I51587
sg28
g5
sg29
g8
(g12
S'\xb0\x1b\xf2\xb1]\x8f\xc1?'
p660
tp661
Rp662
sg33
I900000
sg34
I947861
sg35
I52
sg36
I0
sg37
I441096
sg38
I263413
sg39
I1318763
sg40
I506765
ssS'HERMANN ROBERT J'
p663
(dp664
g3
g5
sg4
g5
sg6
I48357
sg7
g8
(g12
S'\x00\x00\x00\x00\x00\x00\x00\x00'
p665
tp666
Rp667
sg18
I00
sg19
I-280000
sg20
S'robert.hermann@enron.com'
p668
sg22
I150000
sg23
g5
sg24
g5
sg25
g5
sg26
g5
sg27
I416441
sg28
g5
sg29
g8
(g12
S'\x00\x00\x00\x00\x00\x00\x00\x00'
p669
tp670
Rp671
sg33
I700000
sg34
I668132
sg35
g5
sg36
g5
sg37
I480632
sg38
I262663
sg39
I1297461
sg40
I187500
ssS'SCRIMSHAW MATTHEW'
p672
(dp673
g3
g5
sg4
g5
sg6
g5
sg7
g8
(g12
S'\x00\x00\x00\x00\x00\x00\x00\x00'
p674
tp675
Rp676
sg18
I00
sg19
g5
sg20
S'matthew.scrimshaw@enron.com'
p677
sg22
g5
sg23
g5
sg24
g5
sg25
g5
sg26
g5
sg27
g5
sg28
g5
sg29
g8
(g12
S'\x00\x00\x00\x00\x00\x00\x00\x00'
p678
tp679
Rp680
sg33
g5
sg34
I759557
sg35
g5
sg36
g5
sg37
g5
sg38
g5
sg39
g5
sg40
I759557
ssS'GATHMANN WILLIAM D'
p681
(dp682
g3
g5
sg4
g5
sg6
g5
sg7
g8
(g12
S'\x00\x00\x00\x00\x00\x00\x00\x00'
p683
tp684
Rp685
sg18
I00
sg19
g5
sg20
g5
sg22
g5
sg23
I-72419
sg24
g5
sg25
g5
sg26
g5
sg27
g5
sg28
g5
sg29
g8
(g12
S'\x00\x00\x00\x00\x00\x00\x00\x00'
p686
tp687
Rp688
sg33
g5
sg34
I1945360
sg35
g5
sg36
g5
sg37
I264013
sg38
g5
sg39
g5
sg40
I1753766
ssS'HAEDICKE MARK E'
p689
(dp690
g3
I4009
sg4
I2157527
sg6
I76169
sg7
g8
(g12
S'\xf0T\x8cx6\x17\xa0?'
p691
tp692
Rp693
sg18
I00
sg19
I-934484
sg20
S'mark.haedicke@enron.com'
p694
sg22
I983346
sg23
I-329825
sg24
I1847
sg25
g5
sg26
I1941
sg27
I52382
sg28
g5
sg29
g8
(g12
S'\x96\x95GPPq\xca?'
p695
tp696
Rp697
sg33
I1150000
sg34
I803094
sg35
I180
sg36
I61
sg37
I524169
sg38
I374125
sg39
I3859065
sg40
I608750
ssS'BOWEN JR RAYMOND M'
p698
(dp699
g3
I1858
sg4
g5
sg6
I65907
sg7
g8
(g12
S'r\x1c\xc7q\x1c\xc7\xe1?'
p700
tp701
Rp702
sg18
I01
sg19
I-833
sg20
S'raymond.bowen@enron.com'
p703
sg22
I974293
sg23
g5
sg24
I1593
sg25
g5
sg26
I27
sg27
I1621
sg28
g5
sg29
g8
(g12
S'\x89~\x9d\xce(0\xd6?'
p704
tp705
Rp706
sg33
I1350000
sg34
I252055
sg35
I140
sg36
I15
sg37
I252055
sg38
I278601
sg39
I2669589
sg40
g5
ssS'GILLIS JOHN'
p707
(dp708
g3
g5
sg4
g5
sg6
g5
sg7
g8
(g12
S'\x00\x00\x00\x00\x00\x00\x00\x00'
p709
tp710
Rp711
sg18
I00
sg19
g5
sg20
g5
sg22
g5
sg23
g5
sg24
g5
sg25
g5
sg26
g5
sg27
g5
sg28
g5
sg29
g8
(g12
S'\x00\x00\x00\x00\x00\x00\x00\x00'
p712
tp713
Rp714
sg33
g5
sg34
I85641
sg35
g5
sg36
g5
sg37
I75838
sg38
g5
sg39
g5
sg40
I9803
ssS'FITZGERALD JAY L'
p715
(dp716
g3
I936
sg4
g5
sg6
I23870
sg7
g8
(g12
S'\x00\x00\x00\x00\x00\x00\xe0?'
p717
tp718
Rp719
sg18
I00
sg19
g5
sg20
S'jay.fitzgerald@enron.com'
p720
sg22
I556416
sg23
g5
sg24
I723
sg25
g5
sg26
I16
sg27
I285414
sg28
g5
sg29
g8
(g12
S'_,\xa5,s"t?'
p721
tp722
Rp723
sg33
I350000
sg34
I1621236
sg35
I1
sg36
I8
sg37
I956775
sg38
I199157
sg39
I1414857
sg40
I664461
ssS'MORAN MICHAEL P'
p724
(dp725
g3
I672
sg4
g5
sg6
g5
sg7
g8
(g12
S'\x00\x00\x00\x00\x00\x00\x00\x00'
p726
tp727
Rp728
sg18
I00
sg19
g5
sg20
S'michael.moran@enron.com'
p729
sg22
g5
sg23
g5
sg24
I127
sg25
g5
sg26
I19
sg27
g5
sg28
g5
sg29
g8
(g12
S'\x00\x00\x00\x00\x00\x00\x00\x00'
p730
tp731
Rp732
sg33
g5
sg34
I221141
sg35
I0
sg36
I0
sg37
I161602
sg38
g5
sg39
g5
sg40
I59539
ssS'REDMOND BRIAN L'
p733
(dp734
g3
I1671
sg4
g5
sg6
I14689
sg7
g8
(g12
S'\x9cMa\x9cMa\xcc?'
p735
tp736
Rp737
sg18
I00
sg19
g5
sg20
S'brian.redmond@enron.com'
p738
sg22
g5
sg23
g5
sg24
I1063
sg25
g5
sg26
I221
sg27
g5
sg28
g5
sg29
g8
(g12
S'Bq\x16\xc3\x86\xf9\xe1?'
p739
tp740
Rp741
sg33
g5
sg34
I7890324
sg35
I204
sg36
I49
sg37
I381285
sg38
I96840
sg39
I111529
sg40
I7509039
ssS'BAZELIDES PHILIP J'
p742
(dp743
g3
g5
sg4
I684694
sg6
g5
sg7
g8
(g12
S'\x00\x00\x00\x00\x00\x00\x00\x00'
p744
tp745
Rp746
sg18
I00
sg19
g5
sg20
g5
sg22
I93750
sg23
g5
sg24
g5
sg25
g5
sg26
g5
sg27
I874
sg28
g5
sg29
g8
(g12
S'\x00\x00\x00\x00\x00\x00\x00\x00'
p747
tp748
Rp749
sg33
g5
sg34
I1599641
sg35
g5
sg36
g5
sg37
g5
sg38
I80818
sg39
I860136
sg40
I1599641
ssS'BELDEN TIMOTHY N'
p750
(dp751
g3
I7991
sg4
I2144013
sg6
I17355
sg7
g8
(g12
S'3(\x15&\xde\x8f\xcc?'
p752
tp753
Rp754
sg18
I01
sg19
I-2334434
sg20
S'tim.belden@enron.com'
p755
sg22
g5
sg23
g5
sg24
I5521
sg25
g5
sg26
I484
sg27
I210698
sg28
g5
sg29
g8
(g12
S'<\x97,\xbd\xb7\xcd\xc0?'
p756
tp757
Rp758
sg33
I5249999
sg34
I1110705
sg35
I228
sg36
I108
sg37
I157569
sg38
I213999
sg39
I5501630
sg40
I953136
ssS'DURAN WILLIAM D'
p759
(dp760
g3
I904
sg4
g5
sg6
I25785
sg7
g8
(g12
S'\x00\x00\x00\x00\x00\x00\xd0?'
p761
tp762
Rp763
sg18
I00
sg19
g5
sg20
S'w.duran@enron.com'
p764
sg22
I1105218
sg23
g5
sg24
I599
sg25
g5
sg26
I12
sg27
I1568
sg28
g5
sg29
g8
(g12
S'q\xddr\x8f\xa0C\xe1?'
p765
tp766
Rp767
sg33
I750000
sg34
I1640910
sg35
I106
sg36
I3
sg37
I189041
sg38
I210692
sg39
I2093263
sg40
I1451869
ssS'THORN TERENCE H'
p768
(dp769
g3
I266
sg4
I16586
sg6
I46145
sg7
g8
(g12
S'\x00\x00\x00\x00\x00\x00\x00\x00'
p770
tp771
Rp772
sg18
I00
sg19
g5
sg20
S'terence.thorn@enron.com'
p773
sg22
I200000
sg23
g5
sg24
I73
sg25
g5
sg26
I41
sg27
I426629
sg28
g5
sg29
g8
(g12
S'\x00\x00\x00\x00\x00\x00\x00\x00'
p774
tp775
Rp776
sg33
g5
sg34
I4817796
sg35
I0
sg36
I0
sg37
I365320
sg38
I222093
sg39
I911453
sg40
I4452476
ssS'FASTOW ANDREW S'
p777
(dp778
g3
g5
sg4
g5
sg6
I55921
sg7
g8
(g12
S'\x00\x00\x00\x00\x00\x00\x00\x00'
p779
tp780
Rp781
sg18
I01
sg19
I-1386055
sg20
S'andrew.fastow@enron.com'
p782
sg22
I1736055
sg23
g5
sg24
g5
sg25
g5
sg26
g5
sg27
I277464
sg28
g5
sg29
g8
(g12
S'\x00\x00\x00\x00\x00\x00\x00\x00'
p783
tp784
Rp785
sg33
I1300000
sg34
I1794412
sg35
g5
sg36
g5
sg37
I1794412
sg38
I440698
sg39
I2424083
sg40
g5
ssS'FOY JOE'
p786
(dp787
g3
I57
sg4
I181755
sg6
g5
sg7
g8
(g12
S'\x00\x00\x00\x00\x00\x00\x00\x00'
p788
tp789
Rp790
sg18
I00
sg19
g5
sg20
S'tracy.foy@enron.com'
p791
sg22
g5
sg23
g5
sg24
I2
sg25
g5
sg26
I13
sg27
g5
sg28
g5
sg29
g8
(g12
S'\x00\x00\x00\x00\x00\x00\x00\x00'
p792
tp793
Rp794
sg33
g5
sg34
I343434
sg35
I0
sg36
I0
sg37
g5
sg38
g5
sg39
I181755
sg40
I343434
ssS'CALGER CHRISTOPHER F'
p795
(dp796
g3
I2598
sg4
g5
sg6
I35818
sg7
g8
(g12
S'\x8e\xe38\x8e\xe38\xc6?'
p797
tp798
Rp799
sg18
I01
sg19
I-262500
sg20
S'christopher.calger@enron.com'
p800
sg22
I375304
sg23
g5
sg24
I2188
sg25
g5
sg26
I144
sg27
I486
sg28
g5
sg29
g8
(g12
S'`\x1e\xc4<4\x8e\xd6?'
p801
tp802
Rp803
sg33
I1250000
sg34
I126027
sg35
I199
sg36
I25
sg37
I126027
sg38
I240189
sg39
I1639297
sg40
g5
ssS'RICE KENNETH D'
p804
(dp805
g3
I905
sg4
g5
sg6
I46950
sg7
g8
(g12
S'\x1c\xc7q\x1c\xc7q\xcc?'
p806
tp807
Rp808
sg18
I01
sg19
I-3504386
sg20
S'ken.rice@enron.com'
p809
sg22
I1617011
sg23
g5
sg24
I864
sg25
g5
sg26
I18
sg27
I174839
sg28
g5
sg29
g8
(g12
S'\x1er\x90\xc0\xf3T\xcb?'
p810
tp811
Rp812
sg33
I1750000
sg34
I22542539
sg35
I42
sg36
I4
sg37
I2748364
sg38
I420636
sg39
I505050
sg40
I19794175
ssS'KAMINSKI WINCENTY J'
p813
(dp814
g3
I4607
sg4
g5
sg6
I83585
sg7
g8
(g12
S'\xba:\xd9C\xc9_\x88?'
p815
tp816
Rp817
sg18
I00
sg19
g5
sg20
S'vince.kaminski@enron.com'
p818
sg22
I323466
sg23
g5
sg24
I583
sg25
g5
sg26
I14368
sg27
I4669
sg28
g5
sg29
g8
(g12
S'\xdc\x1d\t\x11\x07\xf7\xa4?'
p819
tp820
Rp821
sg33
I400000
sg34
I976037
sg35
I41
sg36
I171
sg37
I126027
sg38
I275101
sg39
I1086821
sg40
I850010
ssS'LOCKHART EUGENE E'
p822
(dp823
g3
g5
sg4
g5
sg6
g5
sg7
g8
(g12
S'\x00\x00\x00\x00\x00\x00\x00\x00'
p824
tp825
Rp826
sg18
I00
sg19
g5
sg20
g5
sg22
g5
sg23
g5
sg24
g5
sg25
g5
sg26
g5
sg27
g5
sg28
g5
sg29
g8
(g12
S'\x00\x00\x00\x00\x00\x00\x00\x00'
p827
tp828
Rp829
sg33
g5
sg34
g5
sg35
g5
sg36
g5
sg37
g5
sg38
g5
sg39
g5
sg40
g5
ssS'COX DAVID'
p830
(dp831
g3
I102
sg4
g5
sg6
I27861
sg7
g8
(g12
S'\x08\x1f|\xf0\xc1\x07\xbf?'
p832
tp833
Rp834
sg18
I00
sg19
I-41250
sg20
S'chip.cox@enron.com'
p835
sg22
g5
sg23
g5
sg24
I71
sg25
g5
sg26
I33
sg27
I494
sg28
g5
sg29
g8
(g12
S'\x00\x00\x00\x00\x00\x00\x00\x00'
p836
tp837
Rp838
sg33
I800000
sg34
I495633
sg35
I0
sg36
I4
sg37
I378082
sg38
I314288
sg39
I1101393
sg40
I117551
ssS'OVERDYKE JR JERE C'
p839
(dp840
g3
g5
sg4
g5
sg6
I18834
sg7
g8
(g12
S'\x00\x00\x00\x00\x00\x00\x00\x00'
p841
tp842
Rp843
sg18
I00
sg19
g5
sg20
S'jere.overdyke@enron.com'
p844
sg22
I135836
sg23
g5
sg24
g5
sg25
g5
sg26
g5
sg27
I176
sg28
g5
sg29
g8
(g12
S'\x00\x00\x00\x00\x00\x00\x00\x00'
p845
tp846
Rp847
sg33
g5
sg34
I7307594
sg35
g5
sg36
g5
sg37
I2041016
sg38
I94941
sg39
I249787
sg40
I5266578
ssS'PEREIRA PAULO V. FERRAZ'
p848
(dp849
g3
g5
sg4
g5
sg6
I27942
sg7
g8
(g12
S'\x00\x00\x00\x00\x00\x00\x00\x00'
p850
tp851
Rp852
sg18
I00
sg19
I-101250
sg20
g5
sg22
g5
sg23
g5
sg24
g5
sg25
g5
sg26
g5
sg27
g5
sg28
I101250
sg29
g8
(g12
S'\x00\x00\x00\x00\x00\x00\x00\x00'
p853
tp854
Rp855
sg33
g5
sg34
g5
sg35
g5
sg36
g5
sg37
g5
sg38
g5
sg39
I27942
sg40
g5
ssS'STABLER FRANK'
p856
(dp857
g3
g5
sg4
g5
sg6
I16514
sg7
g8
(g12
S'\x00\x00\x00\x00\x00\x00\x00\x00'
p858
tp859
Rp860
sg18
I00
sg19
g5
sg20
S'frank.stabler@enron.com'
p861
sg22
g5
sg23
g5
sg24
g5
sg25
g5
sg26
g5
sg27
I356071
sg28
g5
sg29
g8
(g12
S'\x00\x00\x00\x00\x00\x00\x00\x00'
p862
tp863
Rp864
sg33
I500000
sg34
I511734
sg35
g5
sg36
g5
sg37
I511734
sg38
I239502
sg39
I1112087
sg40
g5
ssS'SKILLING JEFFREY K'
p865
(dp866
g3
I3627
sg4
g5
sg6
I29336
sg7
g8
(g12
S'r\x1c\xc7q\x1c\xc7\xd1?'
p867
tp868
Rp869
sg18
I01
sg19
g5
sg20
S'jeff.skilling@enron.com'
p870
sg22
I1920000
sg23
g5
sg24
I2042
sg25
g5
sg26
I108
sg27
I22122
sg28
g5
sg29
g8
(g12
S'u.\xe2O\xfe\x93\xbc?'
p871
tp872
Rp873
sg33
I5600000
sg34
I26093672
sg35
I88
sg36
I30
sg37
I6843672
sg38
I1111258
sg39
I8682716
sg40
I19250000
ssS'BLAKE JR. NORMAN P'
p874
(dp875
g3
g5
sg4
g5
sg6
I1279
sg7
g8
(g12
S'\x00\x00\x00\x00\x00\x00\x00\x00'
p876
tp877
Rp878
sg18
I00
sg19
I-113784
sg20
g5
sg22
g5
sg23
g5
sg24
g5
sg25
g5
sg26
g5
sg27
g5
sg28
I113784
sg29
g8
(g12
S'\x00\x00\x00\x00\x00\x00\x00\x00'
p879
tp880
Rp881
sg33
g5
sg34
g5
sg35
g5
sg36
g5
sg37
g5
sg38
g5
sg39
I1279
sg40
g5
ssS'SHERRICK JEFFREY B'
p882
(dp883
g3
I613
sg4
g5
sg6
g5
sg7
g8
(g12
S'\n\xd7\xa3p=\n\xe7?'
p884
tp885
Rp886
sg18
I00
sg19
g5
sg20
S'jeffrey.sherrick@enron.com'
p887
sg22
g5
sg23
g5
sg24
I583
sg25
g5
sg26
I25
sg27
g5
sg28
g5
sg29
g8
(g12
S'p\x16\xc9\xeb\x08\xbc\xd2?'
p888
tp889
Rp890
sg33
g5
sg34
I1832468
sg35
I39
sg36
I18
sg37
I405999
sg38
g5
sg39
g5
sg40
I1426469
ssS'PRENTICE JAMES'
p891
(dp892
g3
g5
sg4
I564348
sg6
g5
sg7
g8
(g12
S'\x00\x00\x00\x00\x00\x00\x00\x00'
p893
tp894
Rp895
sg18
I00
sg19
g5
sg20
S'james.prentice@enron.com'
p896
sg22
g5
sg23
g5
sg24
g5
sg25
g5
sg26
g5
sg27
g5
sg28
g5
sg29
g8
(g12
S'\x00\x00\x00\x00\x00\x00\x00\x00'
p897
tp898
Rp899
sg33
g5
sg34
I1095040
sg35
g5
sg36
g5
sg37
I208809
sg38
g5
sg39
I564348
sg40
I886231
ssS'GRAY RODNEY'
p900
(dp901
g3
g5
sg4
I93585
sg6
g5
sg7
g8
(g12
S'\x00\x00\x00\x00\x00\x00\x00\x00'
p902
tp903
Rp904
sg18
I00
sg19
g5
sg20
g5
sg22
I365625
sg23
g5
sg24
g5
sg25
g5
sg26
g5
sg27
I680833
sg28
g5
sg29
g8
(g12
S'\x00\x00\x00\x00\x00\x00\x00\x00'
p905
tp906
Rp907
sg33
g5
sg34
g5
sg35
g5
sg36
g5
sg37
g5
sg38
I6615
sg39
I1146658
sg40
g5
ssS'PICKERING MARK R'
p908
(dp909
g3
I898
sg4
g5
sg6
I31653
sg7
g8
(g12
S'\x00\x00\x00\x00\x00\x00\x00\x00'
p910
tp911
Rp912
sg18
I00
sg19
g5
sg20
S'mark.pickering@enron.com'
p913
sg22
g5
sg23
g5
sg24
I728
sg25
I400000
sg26
I67
sg27
g5
sg28
g5
sg29
g8
(g12
S'\xba\xb2=\xfe\xfe\\\xa2?'
p914
tp915
Rp916
sg33
I300000
sg34
I28798
sg35
I7
sg36
I0
sg37
g5
sg38
I655037
sg39
I1386690
sg40
I28798
ssS'THE TRAVEL AGENCY IN THE PARK'
p917
(dp918
g3
g5
sg4
g5
sg6
g5
sg7
g8
(g12
S'\x00\x00\x00\x00\x00\x00\x00\x00'
p919
tp920
Rp921
sg18
I00
sg19
g5
sg20
g5
sg22
g5
sg23
g5
sg24
g5
sg25
g5
sg26
g5
sg27
I362096
sg28
g5
sg29
g8
(g12
S'\x00\x00\x00\x00\x00\x00\x00\x00'
p922
tp923
Rp924
sg33
g5
sg34
g5
sg35
g5
sg36
g5
sg37
g5
sg38
g5
sg39
I362096
sg40
g5
ssS'NOLES JAMES L'
p925
(dp926
g3
g5
sg4
I774401
sg6
g5
sg7
g8
(g12
S'\x00\x00\x00\x00\x00\x00\x00\x00'
p927
tp928
Rp929
sg18
I00
sg19
g5
sg20
g5
sg22
g5
sg23
I-94556
sg24
g5
sg25
g5
sg26
g5
sg27
g5
sg28
g5
sg29
g8
(g12
S'\x00\x00\x00\x00\x00\x00\x00\x00'
p930
tp931
Rp932
sg33
g5
sg34
I368705
sg35
g5
sg36
g5
sg37
I463261
sg38
g5
sg39
I774401
sg40
g5
ssS'KEAN STEVEN J'
p933
(dp934
g3
I12754
sg4
g5
sg6
I41953
sg7
g8
(g12
S'\xc4@\xde\xcc\xc9P\xad?'
p935
tp936
Rp937
sg18
I00
sg19
g5
sg20
S'steven.kean@enron.com'
p938
sg22
I300000
sg23
g5
sg24
I3639
sg25
g5
sg26
I6759
sg27
I1231
sg28
g5
sg29
g8
(g12
S'\x10\x01\x8f\x12\xe0\xdb\xa9?'
p939
tp940
Rp941
sg33
I1000000
sg34
I6153642
sg35
I140
sg36
I387
sg37
I4131594
sg38
I404338
sg39
I1747522
sg40
I2022048
ssS'FOWLER PEGGY'
p942
(dp943
g3
I517
sg4
g5
sg6
g5
sg7
g8
(g12
S'\x00\x00\x00\x00\x00\x00\x00\x00'
p944
tp945
Rp946
sg18
I00
sg19
g5
sg20
S'kulvinder.fowler@enron.com'
p947
sg22
g5
sg23
g5
sg24
I10
sg25
g5
sg26
I36
sg27
g5
sg28
g5
sg29
g8
(g12
S'\x00\x00\x00\x00\x00\x00\x00\x00'
p948
tp949
Rp950
sg33
g5
sg34
I1884748
sg35
I0
sg36
I0
sg37
I560170
sg38
g5
sg39
g5
sg40
I1324578
ssS'WASAFF GEORGE'
p951
(dp952
g3
I400
sg4
I831299
sg6
g5
sg7
g8
(g12
S'\xde\xdd\xdd\xdd\xdd\xdd\xcd?'
p953
tp954
Rp955
sg18
I00
sg19
I-583325
sg20
S'george.wasaff@enron.com'
p956
sg22
I200000
sg23
g5
sg24
I337
sg25
g5
sg26
I30
sg27
I1425
sg28
g5
sg29
g8
(g12
S'\x0c\x9f\xcaR\x1c2\xd0?'
p957
tp958
Rp959
sg33
I325000
sg34
I2056427
sg35
I22
sg36
I7
sg37
I388167
sg38
I259996
sg39
I1034395
sg40
I1668260
ssS'WHITE JR THOMAS E'
p960
(dp961
g3
g5
sg4
g5
sg6
I81353
sg7
g8
(g12
S'\x00\x00\x00\x00\x00\x00\x00\x00'
p962
tp963
Rp964
sg18
I00
sg19
g5
sg20
S'thomas.white@enron.com'
p965
sg22
g5
sg23
g5
sg24
g5
sg25
g5
sg26
g5
sg27
I1085463
sg28
g5
sg29
g8
(g12
S'\x00\x00\x00\x00\x00\x00\x00\x00'
p966
tp967
Rp968
sg33
I450000
sg34
I15144123
sg35
g5
sg36
g5
sg37
I13847074
sg38
I317543
sg39
I1934359
sg40
I1297049
ssS'CHRISTODOULOU DIOMEDES'
p969
(dp970
g3
g5
sg4
g5
sg6
g5
sg7
g8
(g12
S'\x00\x00\x00\x00\x00\x00\x00\x00'
p971
tp972
Rp973
sg18
I00
sg19
g5
sg20
S'diomedes.christodoulou@enron.com'
p974
sg22
g5
sg23
g5
sg24
g5
sg25
g5
sg26
g5
sg27
g5
sg28
g5
sg29
g8
(g12
S'\x00\x00\x00\x00\x00\x00\x00\x00'
p975
tp976
Rp977
sg33
g5
sg34
I6077885
sg35
g5
sg36
g5
sg37
I950730
sg38
g5
sg39
g5
sg40
I5127155
ssS'ALLEN PHILLIP K'
p978
(dp979
g3
I2902
sg4
I2869717
sg6
I13868
sg7
g8
(g12
S'\xa9\x19\xccn\xceR\x9e?'
p980
tp981
Rp982
sg18
I00
sg19
I-3081055
sg20
S'phillip.allen@enron.com'
p983
sg22
I304805
sg23
I-126027
sg24
I1407
sg25
g5
sg26
I2195
sg27
I152
sg28
g5
sg29
g8
(g12
S'\xf0"\xaeo\x95\x13\xb3?'
p984
tp985
Rp986
sg33
I4175000
sg34
I1729541
sg35
I47
sg36
I65
sg37
I126027
sg38
I201955
sg39
I4484442
sg40
I1729541
ssS'SHARP VICTORIA T'
p987
(dp988
g3
I3136
sg4
I187469
sg6
I116337
sg7
g8
(g12
S'\x97\x96\x96\x96\x96\x96\xa6?'
p989
tp990
Rp991
sg18
I00
sg19
g5
sg20
S'vicki.sharp@enron.com'
p992
sg22
I422158
sg23
g5
sg24
I2477
sg25
g5
sg26
I136
sg27
I2401
sg28
g5
sg29
g8
(g12
S'\\9\x04&V\x07\xa2?'
p993
tp994
Rp995
sg33
I600000
sg34
I494136
sg35
I24
sg36
I6
sg37
I213063
sg38
I248146
sg39
I1576511
sg40
I281073
ssS'JAEDICKE ROBERT'
p996
(dp997
g3
g5
sg4
g5
sg6
g5
sg7
g8
(g12
S'\x00\x00\x00\x00\x00\x00\x00\x00'
p998
tp999
Rp1000
sg18
I00
sg19
I-25000
sg20
g5
sg22
g5
sg23
I-44093
sg24
g5
sg25
g5
sg26
g5
sg27
g5
sg28
I108750
sg29
g8
(g12
S'\x00\x00\x00\x00\x00\x00\x00\x00'
p1001
tp1002
Rp1003
sg33
g5
sg34
I431750
sg35
g5
sg36
g5
sg37
I44093
sg38
g5
sg39
I83750
sg40
I431750
ssS'WINOKUR JR. HERBERT S'
p1004
(dp1005
g3
g5
sg4
g5
sg6
I1413
sg7
g8
(g12
S'\x00\x00\x00\x00\x00\x00\x00\x00'
p1006
tp1007
Rp1008
sg18
I00
sg19
I-25000
sg20
g5
sg22
g5
sg23
g5
sg24
g5
sg25
g5
sg26
g5
sg27
g5
sg28
I108579
sg29
g8
(g12
S'\x00\x00\x00\x00\x00\x00\x00\x00'
p1009
tp1010
Rp1011
sg33
g5
sg34
g5
sg35
g5
sg36
g5
sg37
g5
sg38
g5
sg39
I84992
sg40
g5
ssS'BROWN MICHAEL'
p1012
(dp1013
g3
I1486
sg4
g5
sg6
I49288
sg7
g8
(g12
S'\xfa\x18\x9c\x8f\xc1\xf9\x98?'
p1014
tp1015
Rp1016
sg18
I00
sg19
g5
sg20
S'michael.brown@enron.com'
p1017
sg22
g5
sg23
g5
sg24
I761
sg25
g5
sg26
I41
sg27
g5
sg28
g5
sg29
g8
(g12
S'M\x8b\xd6~\xda\x9b\xa4?'
p1018
tp1019
Rp1020
sg33
g5
sg34
g5
sg35
I13
sg36
I1
sg37
g5
sg38
g5
sg39
I49288
sg40
g5
ssS'BADUM JAMES P'
p1021
(dp1022
g3
g5
sg4
I178980
sg6
I3486
sg7
g8
(g12
S'\x00\x00\x00\x00\x00\x00\x00\x00'
p1023
tp1024
Rp1025
sg18
I00
sg19
g5
sg20
g5
sg22
g5
sg23
g5
sg24
g5
sg25
g5
sg26
g5
sg27
g5
sg28
g5
sg29
g8
(g12
S'\x00\x00\x00\x00\x00\x00\x00\x00'
p1026
tp1027
Rp1028
sg33
g5
sg34
I257817
sg35
g5
sg36
g5
sg37
g5
sg38
g5
sg39
I182466
sg40
I257817
ssS'HUGHES JAMES A'
p1029
(dp1030
g3
I719
sg4
g5
sg6
g5
sg7
g8
(g12
S'\xd3\xd2\xd2\xd2\xd2\xd2\xc2?'
p1031
tp1032
Rp1033
sg18
I00
sg19
g5
sg20
S'james.hughes@enron.com'
p1034
sg22
g5
sg23
g5
sg24
I589
sg25
g5
sg26
I34
sg27
g5
sg28
g5
sg29
g8
(g12
S'\xba>\xa8?-\xab\xcc?'
p1035
tp1036
Rp1037
sg33
g5
sg34
I1118394
sg35
I35
sg36
I5
sg37
I363428
sg38
g5
sg39
g5
sg40
I754966
ssS'REYNOLDS LAWRENCE'
p1038
(dp1039
g3
g5
sg4
I51365
sg6
I8409
sg7
g8
(g12
S'\x00\x00\x00\x00\x00\x00\x00\x00'
p1040
tp1041
Rp1042
sg18
I00
sg19
I-200000
sg20
g5
sg22
I156250
sg23
I-140264
sg24
g5
sg25
g5
sg26
g5
sg27
I202052
sg28
g5
sg29
g8
(g12
S'\x00\x00\x00\x00\x00\x00\x00\x00'
p1043
tp1044
Rp1045
sg33
I100000
sg34
I4221891
sg35
g5
sg36
g5
sg37
I201483
sg38
I76399
sg39
I394475
sg40
I4160672
ssS'DIMICHELE RICHARD G'
p1046
(dp1047
g3
g5
sg4
g5
sg6
I35812
sg7
g8
(g12
S'\x00\x00\x00\x00\x00\x00\x00\x00'
p1048
tp1049
Rp1050
sg18
I00
sg19
g5
sg20
S'richard.dimichele@enron.com'
p1051
sg22
I694862
sg23
g5
sg24
g5
sg25
g5
sg26
g5
sg27
I374689
sg28
g5
sg29
g8
(g12
S'\x00\x00\x00\x00\x00\x00\x00\x00'
p1052
tp1053
Rp1054
sg33
I1000000
sg34
I8317782
sg35
g5
sg36
g5
sg37
I126027
sg38
I262788
sg39
I2368151
sg40
I8191755
ssS'BHATNAGAR SANJAY'
p1055
(dp1056
g3
I523
sg4
g5
sg6
g5
sg7
g8
(g12
S'\x96{\x1aa\xb9\xa7\xa1?'
p1057
tp1058
Rp1059
sg18
I00
sg19
g5
sg20
S'sanjay.bhatnagar@enron.com'
p1060
sg22
g5
sg23
I15456290
sg24
I463
sg25
g5
sg26
I29
sg27
I137864
sg28
I137864
sg29
g8
(g12
S'\x00\x00\x00\x00\x00\x00\x00\x00'
p1061
tp1062
Rp1063
sg33
g5
sS'total_stock_value'
p1064
S'NaN'
p1065
sg35
I0
sg36
I1
sg37
I-2604490
sg38
g5
sg39
I15456290
sg40
I2604490
ssS'CARTER REBECCA C'
p1066
(dp1067
g3
I312
sg4
g5
sg6
g5
sg7
g8
(g12
S'\xde\xdd\xdd\xdd\xdd\xdd\xdd?'
p1068
tp1069
Rp1070
sg18
I00
sg19
I-159792
sg20
S'rebecca.carter@enron.com'
p1071
sg22
I75000
sg23
I-307301
sg24
I196
sg25
g5
sg26
I15
sg27
I540
sg28
g5
sg29
g8
(g12
S'P\x88\xb0\x90\xd4^\xdb?'
p1072
tp1073
Rp1074
sg33
I300000
sg34
g5
sg35
I29
sg36
I7
sg37
I307301
sg38
I261809
sg39
I477557
sg40
g5
ssS'BUCHANAN HAROLD G'
p1075
(dp1076
g3
I1088
sg4
g5
sg6
I600
sg7
g8
(g12
S'\x00\x00\x00\x00\x00\x00\x00\x00'
p1077
tp1078
Rp1079
sg18
I00
sg19
g5
sg20
S'john.buchanan@enron.com'
p1080
sg22
I304805
sg23
g5
sg24
I23
sg25
g5
sg26
I125
sg27
I1215
sg28
g5
sg29
g8
(g12
S'\x00\x00\x00\x00\x00\x00\x00\x00'
p1081
tp1082
Rp1083
sg33
I500000
sg34
I1014505
sg35
I0
sg36
I0
sg37
I189041
sg38
I248017
sg39
I1054637
sg40
I825464
ssS'YEAP SOON'
p1084
(dp1085
g3
g5
sg4
g5
sg6
I55097
sg7
g8
(g12
S'\x00\x00\x00\x00\x00\x00\x00\x00'
p1086
tp1087
Rp1088
sg18
I00
sg19
g5
sg20
g5
sg22
g5
sg23
g5
sg24
g5
sg25
g5
sg26
g5
sg27
g5
sg28
g5
sg29
g8
(g12
S'\x00\x00\x00\x00\x00\x00\x00\x00'
p1089
tp1090
Rp1091
sg33
g5
sg34
I192758
sg35
g5
sg36
g5
sg37
g5
sg38
g5
sg39
I55097
sg40
I192758
ssS'MURRAY JULIA H'
p1092
(dp1093
g3
I2192
sg4
g5
sg6
I57580
sg7
g8
(g12
S'\x17l\xc1\x16l\xc1\xa6?'
p1094
tp1095
Rp1096
sg18
I00
sg19
g5
sg20
S'julia.murray@enron.com'
p1097
sg22
I125000
sg23
g5
sg24
I395
sg25
g5
sg26
I45
sg27
I330
sg28
g5
sg29
g8
(g12
S'\x19\x94\xd5\\\xb7\xa4\x97?'
p1098
tp1099
Rp1100
sg33
I400000
sg34
I597461
sg35
I11
sg36
I2
sg37
I196983
sg38
I229284
sg39
I812194
sg40
I400478
ssS'GARLAND C KEVIN'
p1101
(dp1102
g3
I209
sg4
g5
sg6
I48405
sg7
g8
(g12
S'\xa3\x8b.\xba\xe8\xa2\xe3?'
p1103
tp1104
Rp1105
sg18
I00
sg19
g5
sg20
S'kevin.garland@enron.com'
p1106
sg22
I375304
sg23
g5
sg24
I178
sg25
g5
sg26
I44
sg27
I60814
sg28
g5
sg29
g8
(g12
S'\xb2\xa0V|\xc3-\xcc?'
p1107
tp1108
Rp1109
sg33
I850000
sg34
I896153
sg35
I10
sg36
I27
sg37
I259907
sg38
I231946
sg39
I1566469
sg40
I636246
ssS'DODSON KEITH'
p1110
(dp1111
g3
I176
sg4
g5
sg6
I28164
sg7
g8
(g12
S'\xdb\xb6m\xdb\xb6m\xcb?'
p1112
tp1113
Rp1114
sg18
I00
sg19
g5
sg20
S'keith.dodson@enron.com'
p1115
sg22
g5
sg23
g5
sg24
I114
sg25
g5
sg26
I14
sg27
I774
sg28
g5
sg29
g8
(g12
S'jo\xd3\x11,\xbb\xd0?'
p1116
tp1117
Rp1118
sg33
I70000
sg34
g5
sg35
I10
sg36
I3
sg37
g5
sg38
I221003
sg39
I319941
sg40
g5
ssS'YEAGER F SCOTT'
p1119
(dp1120
g3
g5
sg4
g5
sg6
I53947
sg7
g8
(g12
S'\x00\x00\x00\x00\x00\x00\x00\x00'
p1121
tp1122
Rp1123
sg18
I01
sg19
g5
sg20
S'scott.yeager@enron.com'
p1124
sg22
g5
sg23
g5
sg24
g5
sg25
g5
sg26
g5
sg27
I147950
sg28
g5
sg29
g8
(g12
S'\x00\x00\x00\x00\x00\x00\x00\x00'
p1125
tp1126
Rp1127
sg33
g5
sg34
I11884758
sg35
g5
sg36
g5
sg37
I3576206
sg38
I158403
sg39
I360300
sg40
I8308552
ssS'HIRKO JOSEPH'
p1128
(dp1129
g3
g5
sg4
I10259
sg6
I77978
sg7
g8
(g12
S'\x00\x00\x00\x00\x00\x00\x00\x00'
p1130
tp1131
Rp1132
sg18
I01
sg19
g5
sg20
S'joe.hirko@enron.com'
p1133
sg22
g5
sg23
g5
sg24
g5
sg25
g5
sg26
g5
sg27
I2856
sg28
g5
sg29
g8
(g12
S'\x00\x00\x00\x00\x00\x00\x00\x00'
p1134
tp1135
Rp1136
sg33
g5
sg34
I30766064
sg35
g5
sg36
g5
sg37
g5
sg38
g5
sg39
I91093
sg40
I30766064
ssS'DIETRICH JANET R'
p1137
(dp1138
g3
I2572
sg4
g5
sg6
I3475
sg7
g8
(g12
S'\x1c\xc7q\x1c\xc7q\xcc?'
p1139
tp1140
Rp1141
sg18
I00
sg19
g5
sg20
S'janet.dietrich@enron.com'
p1142
sg22
I556416
sg23
g5
sg24
I1902
sg25
g5
sg26
I63
sg27
I473
sg28
g5
sg29
g8
(g12
S'\xe2\xc5\xc0\xc7\xafu\xe1?'
p1143
tp1144
Rp1145
sg33
I600000
sg34
I1865087
sg35
I305
sg36
I14
sg37
I315068
sg38
I250100
sg39
I1410464
sg40
I1550019
ssS'DERRICK JR. JAMES V'
p1146
(dp1147
g3
I2181
sg4
g5
sg6
I51124
sg7
g8
(g12
S'\x89G\x8a\xa9\xbe\x87\x96?'
p1148
tp1149
Rp1150
sg18
I00
sg19
I-1284000
sg20
S'james.derrick@enron.com'
p1151
sg22
I484000
sg23
I-1787380
sg24
I1401
sg25
g5
sg26
I909
sg27
I7482
sg28
g5
sg29
g8
(g12
S"+M'U-H\xc1?"
p1152
tp1153
Rp1154
sg33
I800000
sg34
I8831913
sg35
I64
sg36
I20
sg37
I1787380
sg38
I492375
sg39
I550981
sg40
I8831913
ssS'FREVERT MARK A'
p1155
(dp1156
g3
I3275
sg4
I6426990
sg6
I86987
sg7
g8
(g12
S'\x92$I\x92$I\xd2?'
p1157
tp1158
Rp1159
sg18
I00
sg19
I-3367011
sg20
S'mark.frevert@enron.com'
p1160
sg22
I1617011
sg23
g5
sg24
I2979
sg25
I2000000
sg26
I21
sg27
I7427621
sg28
g5
sg29
g8
(g12
S'\x0f\x9b\xaa\xdcX\xc2\xd5?'
p1161
tp1162
Rp1163
sg33
I2000000
sg34
I14622185
sg35
I242
sg36
I6
sg37
I4188667
sg38
I1060932
sg39
I17252530
sg40
I10433518
ssS'PAI LOU L'
p1164
(dp1165
g3
g5
sg4
g5
sg6
I32047
sg7
g8
(g12
S'\x00\x00\x00\x00\x00\x00\x00\x00'
p1166
tp1167
Rp1168
sg18
I00
sg19
g5
sg20
S'lou.pai@enron.com'
p1169
sg22
g5
sg23
g5
sg24
g5
sg25
g5
sg26
g5
sg27
I1829457
sg28
g5
sg29
g8
(g12
S'\x00\x00\x00\x00\x00\x00\x00\x00'
p1170
tp1171
Rp1172
sg33
I1000000
sg34
I23817930
sg35
g5
sg36
g5
sg37
I8453763
sg38
I261879
sg39
I3123383
sg40
I15364167
ssS'BAY FRANKLIN R'
p1173
(dp1174
g3
g5
sg4
I260455
sg6
I129142
sg7
g8
(g12
S'\x00\x00\x00\x00\x00\x00\x00\x00'
p1175
tp1176
Rp1177
sg18
I00
sg19
I-201641
sg20
S'frank.bay@enron.com'
p1178
sg22
g5
sg23
I-82782
sg24
g5
sg25
g5
sg26
g5
sg27
I69
sg28
g5
sg29
g8
(g12
S'\x00\x00\x00\x00\x00\x00\x00\x00'
p1179
tp1180
Rp1181
sg33
I400000
sg34
I63014
sg35
g5
sg36
g5
sg37
I145796
sg38
I239671
sg39
I827696
sg40
g5
ssS'HAYSLETT RODERICK J'
p1182
(dp1183
g3
I2649
sg4
g5
sg6
g5
sg7
g8
(g12
S'\xc7(\xcb\xfe`V\xa2?'
p1184
tp1185
Rp1186
sg18
I00
sg19
g5
sg20
S'rod.hayslett@enron.com'
p1187
sg22
g5
sg23
g5
sg24
I571
sg25
g5
sg26
I1061
sg27
g5
sg28
g5
sg29
g8
(g12
S'4\xa0\xff9\x17 \xaf?'
p1188
tp1189
Rp1190
sg33
g5
sg34
I346663
sg35
I35
sg36
I38
sg37
I346663
sg38
g5
sg39
g5
sg40
g5
ssS'FUGH JOHN L'
p1191
(dp1192
g3
g5
sg4
I50591
sg6
g5
sg7
g8
(g12
S'\x00\x00\x00\x00\x00\x00\x00\x00'
p1193
tp1194
Rp1195
sg18
I00
sg19
g5
sg20
g5
sg22
g5
sg23
g5
sg24
g5
sg25
g5
sg26
g5
sg27
g5
sg28
g5
sg29
g8
(g12
S'\x00\x00\x00\x00\x00\x00\x00\x00'
p1196
tp1197
Rp1198
sg33
g5
sg34
I176378
sg35
g5
sg36
g5
sg37
g5
sg38
g5
sg39
I50591
sg40
I176378
ssS'FALLON JAMES B'
p1199
(dp1200
g3
I1755
sg4
g5
sg6
I95924
sg7
g8
(g12
S'\x93_,\xf9\xc5\x92\xdf?'
p1201
tp1202
Rp1203
sg18
I00
sg19
g5
sg20
S'jim.fallon@enron.com'
p1204
sg22
I374347
sg23
g5
sg24
I1604
sg25
g5
sg26
I75
sg27
I401481
sg28
g5
sg29
g8
(g12
S'Qq\x1a\xd8:0\xbc?'
p1205
tp1206
Rp1207
sg33
I2500000
sg34
I2332399
sg35
I42
sg36
I37
sg37
I1392142
sg38
I304588
sg39
I3676340
sg40
I940257
ssS'KOENIG MARK E'
p1208
(dp1209
g3
I2374
sg4
g5
sg6
I127017
sg7
g8
(g12
S'.\x19\x82u\xb4y\xcf?'
p1210
tp1211
Rp1212
sg18
I01
sg19
g5
sg20
S'mark.koenig@enron.com'
p1213
sg22
I300000
sg23
g5
sg24
I2271
sg25
g5
sg26
I61
sg27
I150458
sg28
g5
sg29
g8
(g12
S'(1\xc8I\xd5K\xba?'
p1214
tp1215
Rp1216
sg33
I700000
sg34
I1920055
sg35
I53
sg36
I15
sg37
I1248318
sg38
I309946
sg39
I1587421
sg40
I671737
ssS'SAVAGE FRANK'
p1217
(dp1218
g3
g5
sg4
g5
sg6
g5
sg7
g8
(g12
S'\x00\x00\x00\x00\x00\x00\x00\x00'
p1219
tp1220
Rp1221
sg18
I00
sg19
I-121284
sg20
g5
sg22
g5
sg23
g5
sg24
g5
sg25
g5
sg26
g5
sg27
g5
sg28
I125034
sg29
g8
(g12
S'\x00\x00\x00\x00\x00\x00\x00\x00'
p1222
tp1223
Rp1224
sg33
g5
sg34
g5
sg35
g5
sg36
g5
sg37
g5
sg38
g5
sg39
I3750
sg40
g5
ssS'IZZO LAWRENCE L'
p1225
(dp1226
g3
I496
sg4
g5
sg6
I28093
sg7
g8
(g12
S'y\r\xe55\x94\xd7\xd0?'
p1227
tp1228
Rp1229
sg18
I00
sg19
g5
sg20
S'larry.izzo@enron.com'
p1230
sg22
I312500
sg23
g5
sg24
I437
sg25
g5
sg26
I19
sg27
I1553729
sg28
g5
sg29
g8
(g12
S'\x1d\x1c`\xed\x89\x9f\xd0?'
p1231
tp1232
Rp1233
sg33
g5
sg34
I5819980
sg35
I28
sg36
I5
sg37
I3654808
sg38
I85274
sg39
I1979596
sg40
I2165172
ssS'TILNEY ELIZABETH A'
p1234
(dp1235
g3
I460
sg4
g5
sg6
g5
sg7
g8
(g12
S'l(\xaf\xa1\xbc\x86\xe2?'
p1236
tp1237
Rp1238
sg18
I00
sg19
I-575000
sg20
S'elizabeth.tilney@enron.com'
p1239
sg22
I275000
sg23
g5
sg24
I379
sg25
g5
sg26
I19
sg27
I152055
sg28
g5
sg29
g8
(g12
S'\xd0\x19+\x9a\x1d\x9b\xb9?'
p1240
tp1241
Rp1242
sg33
I300000
sg34
I1168042
sg35
I10
sg36
I11
sg37
I576792
sg38
I247338
sg39
I399393
sg40
I591250
ssS'MARTIN AMANDA K'
p1243
(dp1244
g3
I1522
sg4
I85430
sg6
I8211
sg7
g8
(g12
S'\x00\x00\x00\x00\x00\x00\x00\x00'
p1245
tp1246
Rp1247
sg18
I00
sg19
g5
sg20
S'a..martin@enron.com'
p1248
sg22
I5145434
sg23
g5
sg24
I477
sg25
g5
sg26
I230
sg27
I2818454
sg28
g5
sg29
g8
(g12
S'\x8a\x0ew*\xc5\xc3\x98?'
p1249
tp1250
Rp1251
sg33
g5
sg34
I2070306
sg35
I8
sg36
I0
sg37
g5
sg38
I349487
sg39
I8407016
sg40
I2070306
ssS'BUY RICHARD B'
p1252
(dp1253
g3
I3523
sg4
I649584
sg6
g5
sg7
g8
(g12
S'\x83i&J\xdbB\xb1?'
p1254
tp1255
Rp1256
sg18
I00
sg19
I-694862
sg20
S'rick.buy@enron.com'
p1257
sg22
I769862
sg23
g5
sg24
I2333
sg25
g5
sg26
I1053
sg27
I400572
sg28
g5
sg29
g8
(g12
S'\xf2\xec\xb3\x08\x0f\x14\xca?'
p1258
tp1259
Rp1260
sg33
I900000
sg34
I3444470
sg35
I156
sg36
I71
sg37
I901657
sg38
I330546
sg39
I2355702
sg40
I2542813
ssS'GRAMM WENDY L'
p1261
(dp1262
g3
g5
sg4
g5
sg6
g5
sg7
g8
(g12
S'\x00\x00\x00\x00\x00\x00\x00\x00'
p1263
tp1264
Rp1265
sg18
I00
sg19
g5
sg20
g5
sg22
g5
sg23
g5
sg24
g5
sg25
g5
sg26
g5
sg27
g5
sg28
I119292
sg29
g8
(g12
S'\x00\x00\x00\x00\x00\x00\x00\x00'
p1266
tp1267
Rp1268
sg33
g5
sg34
g5
sg35
g5
sg36
g5
sg37
g5
sg38
g5
sg39
I119292
sg40
g5
ssS'CAUSEY RICHARD A'
p1269
(dp1270
g3
I1892
sg4
g5
sg6
I30674
sg7
g8
(g12
S'\xd6\x87\xc6\xfa\xd0X\xcf?'
p1271
tp1272
Rp1273
sg18
I01
sg19
I-235000
sg20
S'richard.causey@enron.com'
p1274
sg22
I350000
sg23
g5
sg24
I1585
sg25
g5
sg26
I49
sg27
I307895
sg28
g5
sg29
g8
(g12
S'K\xefLq\xd7\r\xc2?'
p1275
tp1276
Rp1277
sg33
I1000000
sg34
I2502063
sg35
I58
sg36
I12
sg37
I2502063
sg38
I415189
sg39
I1868758
sg40
g5
ssS'TAYLOR MITCHELL S'
p1278
(dp1279
g3
I533
sg4
I227449
sg6
g5
sg7
g8
(g12
S'\x00\x00\x00\x00\x00\x00\x00\x00'
p1280
tp1281
Rp1282
sg18
I00
sg19
g5
sg20
S'mitchell.taylor@enron.com'
p1283
sg22
g5
sg23
g5
sg24
I300
sg25
g5
sg26
I29
sg27
g5
sg28
g5
sg29
g8
(g12
S'\x00\x00\x00\x00\x00\x00\x00\x00'
p1284
tp1285
Rp1286
sg33
I600000
sg34
I3745048
sg35
I0
sg36
I0
sg37
I563798
sg38
I265214
sg39
I1092663
sg40
I3181250
ssS'DONAHUE JR JEFFREY M'
p1287
(dp1288
g3
I865
sg4
g5
sg6
I96268
sg7
g8
(g12
S'\x00\x00\x00\x00\x00\x00\xe0?'
p1289
tp1290
Rp1291
sg18
I00
sg19
I-300000
sg20
S'jeff.donahue@enron.com'
p1292
sg22
g5
sg23
g5
sg24
I772
sg25
g5
sg26
I22
sg27
I891
sg28
g5
sg29
g8
(g12
S'\x00\x00\x00\x00\x00\x00\xf0?'
p1293
tp1294
Rp1295
sg33
I800000
sg34
I1080988
sg35
I188
sg36
I11
sg37
I315068
sg38
I278601
sg39
I875760
sg40
I765920
ssS'GLISAN JR BEN F'
p1296
(dp1297
g3
I873
sg4
g5
sg6
I125978
sg7
g8
(g12
S'\x00\x00\x00\x00\x00\x00\xd8?'
p1298
tp1299
Rp1300
sg18
I01
sg19
g5
sg20
S'ben.glisan@enron.com'
p1301
sg22
I71023
sg23
g5
sg24
I874
sg25
g5
sg26
I16
sg27
I200308
sg28
g5
sg29
g8
(g12
S'\xa9\x05cw7\x8a\xd1?'
p1302
tp1303
Rp1304
sg33
I600000
sg34
I778546
sg35
I52
sg36
I6
sg37
I393818
sg38
I274975
sg39
I1272284
sg40
I384728
ss.